Modules list:
-------------
rest_hello.o:
    CODE              Offs=000000  Size=0001FA  Align=00001  Fill=0000
    RODATA            Offs=000000  Size=0000B9  Align=00001  Fill=0000
    BSS               Offs=000000  Size=000000  Align=00001  Fill=0000
    DATA              Offs=000000  Size=000001  Align=00001  Fill=0000
    ZEROPAGE          Offs=000000  Size=000000  Align=00001  Fill=0000
    NULL              Offs=000000  Size=000000  Align=00001  Fill=0000
../00.LIBRERIE/IP65/lib/ip65.lib(arp.o):
    CODE              Offs=0001FA  Size=000202  Align=00001  Fill=0000
    RODATA            Offs=0000B9  Size=000000  Align=00001  Fill=0000
    BSS               Offs=000000  Size=000066  Align=00001  Fill=0000
    DATA              Offs=000001  Size=000000  Align=00001  Fill=0000
    ZEROPAGE          Offs=000000  Size=000000  Align=00001  Fill=0000
    NULL              Offs=000000  Size=000000  Align=00001  Fill=0000
../00.LIBRERIE/IP65/lib/ip65.lib(config.o):
    CODE              Offs=0003FC  Size=000000  Align=00001  Fill=0000
    RODATA            Offs=0000B9  Size=000000  Align=00001  Fill=0000
    BSS               Offs=000066  Size=000000  Align=00001  Fill=0000
    DATA              Offs=000001  Size=00001E  Align=00001  Fill=0000
    ZEROPAGE          Offs=000000  Size=000000  Align=00001  Fill=0000
    NULL              Offs=000000  Size=000000  Align=00001  Fill=0000
../00.LIBRERIE/IP65/lib/ip65.lib(copymem.o):
    CODE              Offs=0003FC  Size=000027  Align=00001  Fill=0000
    RODATA            Offs=0000B9  Size=000000  Align=00001  Fill=0000
    BSS               Offs=000066  Size=000001  Align=00001  Fill=0000
    DATA              Offs=00001F  Size=000000  Align=00001  Fill=0000
    ZEROPAGE          Offs=000000  Size=000000  Align=00001  Fill=0000
    NULL              Offs=000000  Size=000000  Align=00001  Fill=0000
../00.LIBRERIE/IP65/lib/ip65.lib(error.o):
    CODE              Offs=000423  Size=000071  Align=00001  Fill=0000
    RODATA            Offs=0000B9  Size=0000BD  Align=00001  Fill=0000
    BSS               Offs=000067  Size=000000  Align=00001  Fill=0000
    DATA              Offs=00001F  Size=000000  Align=00001  Fill=0000
    ZEROPAGE          Offs=000000  Size=000000  Align=00001  Fill=0000
    NULL              Offs=000000  Size=000000  Align=00001  Fill=0000
../00.LIBRERIE/IP65/lib/ip65.lib(eth.o):
    CODE              Offs=000494  Size=000020  Align=00001  Fill=0000
    RODATA            Offs=000176  Size=000000  Align=00001  Fill=0000
    BSS               Offs=000067  Size=000004  Align=00001  Fill=0000
    DATA              Offs=00001F  Size=000000  Align=00001  Fill=0000
    ZEROPAGE          Offs=000000  Size=000000  Align=00001  Fill=0000
    NULL              Offs=000000  Size=000000  Align=00001  Fill=0000
../00.LIBRERIE/IP65/lib/ip65.lib(eth_buffer.o):
    CODE              Offs=0004B4  Size=000000  Align=00001  Fill=0000
    RODATA            Offs=000176  Size=000000  Align=00001  Fill=0000
    BSS               Offs=00006B  Size=000BDC  Align=00001  Fill=0000
    DATA              Offs=00001F  Size=000000  Align=00001  Fill=0000
    ZEROPAGE          Offs=000000  Size=000000  Align=00001  Fill=0000
    NULL              Offs=000000  Size=000000  Align=00001  Fill=0000
../00.LIBRERIE/IP65/lib/ip65.lib(ip65.o):
    CODE              Offs=0004B4  Size=00005F  Align=00001  Fill=0000
    RODATA            Offs=000176  Size=000000  Align=00001  Fill=0000
    BSS               Offs=000C47  Size=000004  Align=00001  Fill=0000
    DATA              Offs=00001F  Size=000000  Align=00001  Fill=0000
    ZEROPAGE          Offs=000000  Size=000000  Align=00001  Fill=0000
    NULL              Offs=000000  Size=000000  Align=00001  Fill=0000
../00.LIBRERIE/IP65/lib/ip65.lib(ip65_c.o):
    CODE              Offs=000513  Size=000010  Align=00001  Fill=0000
    RODATA            Offs=000176  Size=000000  Align=00001  Fill=0000
    BSS               Offs=000C4B  Size=000000  Align=00001  Fill=0000
    DATA              Offs=00001F  Size=000000  Align=00001  Fill=0000
    ZEROPAGE          Offs=000000  Size=000000  Align=00001  Fill=0000
    NULL              Offs=000000  Size=000000  Align=00001  Fill=0000
../00.LIBRERIE/IP65/lib/ip65.lib(tcp_c.o):
    CODE              Offs=000523  Size=000084  Align=00001  Fill=0000
    RODATA            Offs=000176  Size=000000  Align=00001  Fill=0000
    BSS               Offs=000C4B  Size=000000  Align=00001  Fill=0000
    DATA              Offs=00001F  Size=000012  Align=00001  Fill=0000
    ZEROPAGE          Offs=000000  Size=000000  Align=00001  Fill=0000
    NULL              Offs=000000  Size=000000  Align=00001  Fill=0000
../00.LIBRERIE/IP65/lib/ip65.lib(timer.o):
    CODE              Offs=0005A7  Size=000018  Align=00001  Fill=0000
    RODATA            Offs=000176  Size=000000  Align=00001  Fill=0000
    BSS               Offs=000C4B  Size=000002  Align=00001  Fill=0000
    DATA              Offs=000031  Size=000000  Align=00001  Fill=0000
    ZEROPAGE          Offs=000000  Size=000000  Align=00001  Fill=0000
    NULL              Offs=000000  Size=000000  Align=00001  Fill=0000
../00.LIBRERIE/IP65/lib/ip65.lib(udp.o):
    CODE              Offs=0005BF  Size=000176  Align=00001  Fill=0000
    RODATA            Offs=000176  Size=000000  Align=00001  Fill=0000
    BSS               Offs=000C4D  Size=00001F  Align=00001  Fill=0000
    DATA              Offs=000031  Size=000003  Align=00001  Fill=0000
    ZEROPAGE          Offs=000000  Size=000000  Align=00001  Fill=0000
    NULL              Offs=000000  Size=000000  Align=00001  Fill=0000
../00.LIBRERIE/IP65/lib/ip65.lib(ip.o):
    CODE              Offs=000735  Size=00020B  Align=00001  Fill=0000
    RODATA            Offs=000176  Size=000000  Align=00001  Fill=0000
    BSS               Offs=000C6C  Size=00000C  Align=00001  Fill=0000
    DATA              Offs=000034  Size=000000  Align=00001  Fill=0000
    ZEROPAGE          Offs=000000  Size=000000  Align=00001  Fill=0000
    NULL              Offs=000000  Size=000000  Align=00001  Fill=0000
../00.LIBRERIE/IP65/lib/ip65.lib(icmp.o):
    CODE              Offs=000940  Size=00010D  Align=00001  Fill=0000
    RODATA            Offs=000176  Size=000000  Align=00001  Fill=0000
    BSS               Offs=000C78  Size=000009  Align=00001  Fill=0000
    DATA              Offs=000034  Size=000003  Align=00001  Fill=0000
    ZEROPAGE          Offs=000000  Size=000000  Align=00001  Fill=0000
    NULL              Offs=000000  Size=000000  Align=00001  Fill=0000
../00.LIBRERIE/IP65/lib/ip65_tcp.lib(arithmetic.o):
    CODE              Offs=000A4D  Size=00009D  Align=00001  Fill=0000
    RODATA            Offs=000176  Size=000000  Align=00001  Fill=0000
    BSS               Offs=000C81  Size=000002  Align=00001  Fill=0000
    DATA              Offs=000037  Size=000000  Align=00001  Fill=0000
    ZEROPAGE          Offs=000000  Size=000000  Align=00001  Fill=0000
    NULL              Offs=000000  Size=000000  Align=00001  Fill=0000
../00.LIBRERIE/IP65/lib/ip65_tcp.lib(tcp.o):
    CODE              Offs=000AEA  Size=00066B  Align=00001  Fill=0000
    RODATA            Offs=000176  Size=000000  Align=00001  Fill=0000
    BSS               Offs=000C83  Size=000042  Align=00001  Fill=0000
    DATA              Offs=000037  Size=000000  Align=00001  Fill=0000
    ZEROPAGE          Offs=000000  Size=000000  Align=00001  Fill=0000
    NULL              Offs=000000  Size=000000  Align=00001  Fill=0000
../00.LIBRERIE/IP65/drivers/ip65_apple2.lib(uthernet.o):
    CODE              Offs=001155  Size=000000  Align=00001  Fill=0000
    RODATA            Offs=000176  Size=000020  Align=00001  Fill=0000
    BSS               Offs=000CC5  Size=000000  Align=00001  Fill=0000
    DATA              Offs=000037  Size=00017C  Align=00001  Fill=0000
    ZEROPAGE          Offs=000000  Size=000000  Align=00001  Fill=0000
    NULL              Offs=000000  Size=000000  Align=00001  Fill=0000
../00.LIBRERIE/IP65/drivers/ip65_apple2.lib(lancegs.o):
    CODE              Offs=001155  Size=000000  Align=00001  Fill=0000
    RODATA            Offs=000196  Size=00002E  Align=00001  Fill=0000
    BSS               Offs=000CC5  Size=000000  Align=00001  Fill=0000
    DATA              Offs=0001B3  Size=00018B  Align=00001  Fill=0000
    ZEROPAGE          Offs=000000  Size=000000  Align=00001  Fill=0000
    NULL              Offs=000000  Size=000000  Align=00001  Fill=0000
../00.LIBRERIE/IP65/drivers/ip65_apple2.lib(uthernet2.o):
    CODE              Offs=001155  Size=000000  Align=00001  Fill=0000
    RODATA            Offs=0001C4  Size=00002B  Align=00001  Fill=0000
    BSS               Offs=000CC5  Size=000000  Align=00001  Fill=0000
    DATA              Offs=00033E  Size=000238  Align=00001  Fill=0000
    ZEROPAGE          Offs=000000  Size=000000  Align=00001  Fill=0000
    NULL              Offs=000000  Size=000000  Align=00001  Fill=0000
../00.LIBRERIE/IP65/drivers/ip65_apple2.lib(a2combo.o):
    CODE              Offs=001155  Size=0000BF  Align=00001  Fill=0000
    RODATA            Offs=0001EF  Size=000000  Align=00001  Fill=0000
    BSS               Offs=000CC5  Size=000015  Align=00001  Fill=0000
    DATA              Offs=000576  Size=000043  Align=00001  Fill=0000
    ZEROPAGE          Offs=000000  Size=000000  Align=00001  Fill=0000
    NULL              Offs=000000  Size=000000  Align=00001  Fill=0000
../00.LIBRERIE/IP65/drivers/ip65_apple2.lib(a2_timer.o):
    CODE              Offs=001214  Size=00002E  Align=00001  Fill=0000
    RODATA            Offs=0001EF  Size=000000  Align=00001  Fill=0000
    BSS               Offs=000CDA  Size=000002  Align=00001  Fill=0000
    DATA              Offs=0005B9  Size=000000  Align=00001  Fill=0000
    ZEROPAGE          Offs=000000  Size=000000  Align=00001  Fill=0000
    NULL              Offs=000000  Size=000000  Align=00001  Fill=0000
../00.LIBRERIE/IP65/drivers/ip65_apple2.lib(a2_input.o):
    CODE              Offs=001242  Size=00000F  Align=00001  Fill=0000
    RODATA            Offs=0001EF  Size=000000  Align=00001  Fill=0000
    BSS               Offs=000CDC  Size=000000  Align=00001  Fill=0000
    DATA              Offs=0005B9  Size=000001  Align=00001  Fill=0000
    ZEROPAGE          Offs=000000  Size=000000  Align=00001  Fill=0000
    NULL              Offs=000000  Size=000000  Align=00001  Fill=0000
../00.LIBRERIE/CC65/lib/apple2.lib(_directerrno.o):
    CODE              Offs=001251  Size=00000A  Align=00001  Fill=0000
    RODATA            Offs=0001EF  Size=000000  Align=00001  Fill=0000
    BSS               Offs=000CDC  Size=000000  Align=00001  Fill=0000
    DATA              Offs=0005BA  Size=000000  Align=00001  Fill=0000
    ZEROPAGE          Offs=000000  Size=000000  Align=00001  Fill=0000
    NULL              Offs=000000  Size=000000  Align=00001  Fill=0000
../00.LIBRERIE/CC65/lib/apple2.lib(_file.o):
    CODE              Offs=00125B  Size=000000  Align=00001  Fill=0000
    RODATA            Offs=0001EF  Size=000000  Align=00001  Fill=0000
    BSS               Offs=000CDC  Size=000000  Align=00001  Fill=0000
    DATA              Offs=0005BA  Size=00001E  Align=00001  Fill=0000
    ZEROPAGE          Offs=000000  Size=000000  Align=00001  Fill=0000
    NULL              Offs=000000  Size=000000  Align=00001  Fill=0000
../00.LIBRERIE/CC65/lib/apple2.lib(_hextab.o):
    CODE              Offs=00125B  Size=000000  Align=00001  Fill=0000
    RODATA            Offs=0001EF  Size=000010  Align=00001  Fill=0000
    BSS               Offs=000CDC  Size=000000  Align=00001  Fill=0000
    DATA              Offs=0005D8  Size=000000  Align=00001  Fill=0000
    ZEROPAGE          Offs=000000  Size=000000  Align=00001  Fill=0000
    NULL              Offs=000000  Size=000000  Align=00001  Fill=0000
../00.LIBRERIE/CC65/lib/apple2.lib(_longminstr.o):
    CODE              Offs=00125B  Size=000000  Align=00001  Fill=0000
    RODATA            Offs=0001FF  Size=00000C  Align=00001  Fill=0000
    BSS               Offs=000CDC  Size=000000  Align=00001  Fill=0000
    DATA              Offs=0005D8  Size=000000  Align=00001  Fill=0000
    ZEROPAGE          Offs=000000  Size=000000  Align=00001  Fill=0000
    NULL              Offs=000000  Size=000000  Align=00001  Fill=0000
../00.LIBRERIE/CC65/lib/apple2.lib(_mappederrno.o):
    CODE              Offs=00125B  Size=000010  Align=00001  Fill=0000
    RODATA            Offs=00020B  Size=000000  Align=00001  Fill=0000
    BSS               Offs=000CDC  Size=000000  Align=00001  Fill=0000
    DATA              Offs=0005D8  Size=000000  Align=00001  Fill=0000
    ZEROPAGE          Offs=000000  Size=000000  Align=00001  Fill=0000
    NULL              Offs=000000  Size=000000  Align=00001  Fill=0000
../00.LIBRERIE/CC65/lib/apple2.lib(_oserror.o):
    CODE              Offs=00126B  Size=000000  Align=00001  Fill=0000
    RODATA            Offs=00020B  Size=000000  Align=00001  Fill=0000
    BSS               Offs=000CDC  Size=000001  Align=00001  Fill=0000
    DATA              Offs=0005D8  Size=000000  Align=00001  Fill=0000
    ZEROPAGE          Offs=000000  Size=000000  Align=00001  Fill=0000
    NULL              Offs=000000  Size=000000  Align=00001  Fill=0000
../00.LIBRERIE/CC65/lib/apple2.lib(_printf.o):
    CODE              Offs=00126B  Size=0003A2  Align=00001  Fill=0000
    RODATA            Offs=00020B  Size=000000  Align=00001  Fill=0000
    BSS               Offs=000CDD  Size=00002B  Align=00001  Fill=0000
    DATA              Offs=0005D8  Size=000003  Align=00001  Fill=0000
    ZEROPAGE          Offs=000000  Size=000000  Align=00001  Fill=0000
    NULL              Offs=000000  Size=000000  Align=00001  Fill=0000
../00.LIBRERIE/CC65/lib/apple2.lib(_seterrno.o):
    CODE              Offs=00160D  Size=000009  Align=00001  Fill=0000
    RODATA            Offs=00020B  Size=000000  Align=00001  Fill=0000
    BSS               Offs=000D08  Size=000000  Align=00001  Fill=0000
    DATA              Offs=0005DB  Size=000000  Align=00001  Fill=0000
    ZEROPAGE          Offs=000000  Size=000000  Align=00001  Fill=0000
    NULL              Offs=000000  Size=000000  Align=00001  Fill=0000
../00.LIBRERIE/CC65/lib/apple2.lib(add.o):
    CODE              Offs=001616  Size=00001C  Align=00001  Fill=0000
    RODATA            Offs=00020B  Size=000000  Align=00001  Fill=0000
    BSS               Offs=000D08  Size=000000  Align=00001  Fill=0000
    DATA              Offs=0005DB  Size=000000  Align=00001  Fill=0000
    ZEROPAGE          Offs=000000  Size=000000  Align=00001  Fill=0000
    NULL              Offs=000000  Size=000000  Align=00001  Fill=0000
../00.LIBRERIE/CC65/lib/apple2.lib(addeqsp.o):
    CODE              Offs=001632  Size=000011  Align=00001  Fill=0000
    RODATA            Offs=00020B  Size=000000  Align=00001  Fill=0000
    BSS               Offs=000D08  Size=000000  Align=00001  Fill=0000
    DATA              Offs=0005DB  Size=000000  Align=00001  Fill=0000
    ZEROPAGE          Offs=000000  Size=000000  Align=00001  Fill=0000
    NULL              Offs=000000  Size=000000  Align=00001  Fill=0000
../00.LIBRERIE/CC65/lib/apple2.lib(addysp.o):
    CODE              Offs=001643  Size=00000E  Align=00001  Fill=0000
    RODATA            Offs=00020B  Size=000000  Align=00001  Fill=0000
    BSS               Offs=000D08  Size=000000  Align=00001  Fill=0000
    DATA              Offs=0005DB  Size=000000  Align=00001  Fill=0000
    ZEROPAGE          Offs=000000  Size=000000  Align=00001  Fill=0000
    NULL              Offs=000000  Size=000000  Align=00001  Fill=0000
../00.LIBRERIE/CC65/lib/apple2.lib(axlong.o):
    CODE              Offs=001651  Size=00000D  Align=00001  Fill=0000
    RODATA            Offs=00020B  Size=000000  Align=00001  Fill=0000
    BSS               Offs=000D08  Size=000000  Align=00001  Fill=0000
    DATA              Offs=0005DB  Size=000000  Align=00001  Fill=0000
    ZEROPAGE          Offs=000000  Size=000000  Align=00001  Fill=0000
    NULL              Offs=000000  Size=000000  Align=00001  Fill=0000
../00.LIBRERIE/CC65/lib/apple2.lib(bneg.o):
    CODE              Offs=00165E  Size=00000E  Align=00001  Fill=0000
    RODATA            Offs=00020B  Size=000000  Align=00001  Fill=0000
    BSS               Offs=000D08  Size=000000  Align=00001  Fill=0000
    DATA              Offs=0005DB  Size=000000  Align=00001  Fill=0000
    ZEROPAGE          Offs=000000  Size=000000  Align=00001  Fill=0000
    NULL              Offs=000000  Size=000000  Align=00001  Fill=0000
../00.LIBRERIE/CC65/lib/apple2.lib(callmain.o):
    CODE              Offs=00166C  Size=000042  Align=00001  Fill=0000
    RODATA            Offs=00020B  Size=000000  Align=00001  Fill=0000
    BSS               Offs=000D08  Size=000000  Align=00001  Fill=0000
    DATA              Offs=0005DB  Size=000004  Align=00001  Fill=0000
    ZEROPAGE          Offs=000000  Size=000000  Align=00001  Fill=0000
    NULL              Offs=000000  Size=000000  Align=00001  Fill=0000
../00.LIBRERIE/CC65/lib/apple2.lib(checkferror.o):
    CODE              Offs=0016AE  Size=00000C  Align=00001  Fill=0000
    RODATA            Offs=00020B  Size=000000  Align=00001  Fill=0000
    BSS               Offs=000D08  Size=000000  Align=00001  Fill=0000
    DATA              Offs=0005DF  Size=000000  Align=00001  Fill=0000
    ZEROPAGE          Offs=000000  Size=000000  Align=00001  Fill=0000
    NULL              Offs=000000  Size=000000  Align=00001  Fill=0000
../00.LIBRERIE/CC65/lib/apple2.lib(condes.o):
    CODE              Offs=0016BA  Size=00000C  Align=00001  Fill=0000
    RODATA            Offs=00020B  Size=000000  Align=00001  Fill=0000
    BSS               Offs=000D08  Size=000000  Align=00001  Fill=0000
    DATA              Offs=0005DF  Size=000025  Align=00001  Fill=0000
    ZEROPAGE          Offs=000000  Size=000000  Align=00001  Fill=0000
    NULL              Offs=000000  Size=000000  Align=00001  Fill=0000
    ONCE              Offs=000000  Size=00000C  Align=00001  Fill=0000
../00.LIBRERIE/CC65/lib/apple2.lib(cout.o):
    CODE              Offs=0016C6  Size=000000  Align=00001  Fill=0000
    RODATA            Offs=00020B  Size=000000  Align=00001  Fill=0000
    BSS               Offs=000D08  Size=000000  Align=00001  Fill=0000
    DATA              Offs=000604  Size=000000  Align=00001  Fill=0000
    ZEROPAGE          Offs=000000  Size=000000  Align=00001  Fill=0000
    NULL              Offs=000000  Size=000000  Align=00001  Fill=0000
    LOWCODE           Offs=000000  Size=00000A  Align=00001  Fill=0000
../00.LIBRERIE/CC65/lib/apple2.lib(crt0.o):
    CODE              Offs=0016C6  Size=000012  Align=00001  Fill=0000
    RODATA            Offs=00020B  Size=000007  Align=00001  Fill=0000
    BSS               Offs=000D08  Size=000000  Align=00001  Fill=0000
    DATA              Offs=000604  Size=000003  Align=00001  Fill=0000
    ZEROPAGE          Offs=000000  Size=000000  Align=00001  Fill=0000
    NULL              Offs=000000  Size=000000  Align=00001  Fill=0000
    STARTUP           Offs=000000  Size=00000C  Align=00001  Fill=0000
    ONCE              Offs=00000C  Size=00006A  Align=00001  Fill=0000
    INIT              Offs=000000  Size=00001D  Align=00001  Fill=0000
../00.LIBRERIE/CC65/lib/apple2.lib(ctype.o):
    CODE              Offs=0016D8  Size=000000  Align=00001  Fill=0000
    RODATA            Offs=000212  Size=00008B  Align=00001  Fill=0000
    BSS               Offs=000D08  Size=000000  Align=00001  Fill=0000
    DATA              Offs=000607  Size=000000  Align=00001  Fill=0000
    ZEROPAGE          Offs=000000  Size=000000  Align=00001  Fill=0000
    NULL              Offs=000000  Size=000000  Align=00001  Fill=0000
../00.LIBRERIE/CC65/lib/apple2.lib(ctypemask.o):
    CODE              Offs=0016D8  Size=00001E  Align=00001  Fill=0000
    RODATA            Offs=00029D  Size=000000  Align=00001  Fill=0000
    BSS               Offs=000D08  Size=000000  Align=00001  Fill=0000
    DATA              Offs=000607  Size=000000  Align=00001  Fill=0000
    ZEROPAGE          Offs=000000  Size=000000  Align=00001  Fill=0000
    NULL              Offs=000000  Size=000000  Align=00001  Fill=0000
../00.LIBRERIE/CC65/lib/apple2.lib(decax1.o):
    CODE              Offs=0016F6  Size=000007  Align=00001  Fill=0000
    RODATA            Offs=00029D  Size=000000  Align=00001  Fill=0000
    BSS               Offs=000D08  Size=000000  Align=00001  Fill=0000
    DATA              Offs=000607  Size=000000  Align=00001  Fill=0000
    ZEROPAGE          Offs=000000  Size=000000  Align=00001  Fill=0000
    NULL              Offs=000000  Size=000000  Align=00001  Fill=0000
../00.LIBRERIE/CC65/lib/apple2.lib(decax2.o):
    CODE              Offs=0016FD  Size=000007  Align=00001  Fill=0000
    RODATA            Offs=00029D  Size=000000  Align=00001  Fill=0000
    BSS               Offs=000D08  Size=000000  Align=00001  Fill=0000
    DATA              Offs=000607  Size=000000  Align=00001  Fill=0000
    ZEROPAGE          Offs=000000  Size=000000  Align=00001  Fill=0000
    NULL              Offs=000000  Size=000000  Align=00001  Fill=0000
../00.LIBRERIE/CC65/lib/apple2.lib(decax3.o):
    CODE              Offs=001704  Size=000007  Align=00001  Fill=0000
    RODATA            Offs=00029D  Size=000000  Align=00001  Fill=0000
    BSS               Offs=000D08  Size=000000  Align=00001  Fill=0000
    DATA              Offs=000607  Size=000000  Align=00001  Fill=0000
    ZEROPAGE          Offs=000000  Size=000000  Align=00001  Fill=0000
    NULL              Offs=000000  Size=000000  Align=00001  Fill=0000
../00.LIBRERIE/CC65/lib/apple2.lib(decsp2.o):
    CODE              Offs=00170B  Size=00000D  Align=00001  Fill=0000
    RODATA            Offs=00029D  Size=000000  Align=00001  Fill=0000
    BSS               Offs=000D08  Size=000000  Align=00001  Fill=0000
    DATA              Offs=000607  Size=000000  Align=00001  Fill=0000
    ZEROPAGE          Offs=000000  Size=000000  Align=00001  Fill=0000
    NULL              Offs=000000  Size=000000  Align=00001  Fill=0000
../00.LIBRERIE/CC65/lib/apple2.lib(decsp4.o):
    CODE              Offs=001718  Size=00000D  Align=00001  Fill=0000
    RODATA            Offs=00029D  Size=000000  Align=00001  Fill=0000
    BSS               Offs=000D08  Size=000000  Align=00001  Fill=0000
    DATA              Offs=000607  Size=000000  Align=00001  Fill=0000
    ZEROPAGE          Offs=000000  Size=000000  Align=00001  Fill=0000
    NULL              Offs=000000  Size=000000  Align=00001  Fill=0000
../00.LIBRERIE/CC65/lib/apple2.lib(decsp6.o):
    CODE              Offs=001725  Size=00000D  Align=00001  Fill=0000
    RODATA            Offs=00029D  Size=000000  Align=00001  Fill=0000
    BSS               Offs=000D08  Size=000000  Align=00001  Fill=0000
    DATA              Offs=000607  Size=000000  Align=00001  Fill=0000
    ZEROPAGE          Offs=000000  Size=000000  Align=00001  Fill=0000
    NULL              Offs=000000  Size=000000  Align=00001  Fill=0000
../00.LIBRERIE/CC65/lib/apple2.lib(dosdetect.o):
    CODE              Offs=001732  Size=000000  Align=00001  Fill=0000
    RODATA            Offs=00029D  Size=000000  Align=00001  Fill=0000
    BSS               Offs=000D08  Size=000000  Align=00001  Fill=0000
    DATA              Offs=000607  Size=000001  Align=00001  Fill=0000
    ZEROPAGE          Offs=000000  Size=000000  Align=00001  Fill=0000
    NULL              Offs=000000  Size=000000  Align=00001  Fill=0000
    ONCE              Offs=000076  Size=000014  Align=00001  Fill=0000
../00.LIBRERIE/CC65/lib/apple2.lib(errno.o):
    CODE              Offs=001732  Size=000000  Align=00001  Fill=0000
    RODATA            Offs=00029D  Size=000000  Align=00001  Fill=0000
    BSS               Offs=000D08  Size=000002  Align=00001  Fill=0000
    DATA              Offs=000608  Size=000000  Align=00001  Fill=0000
    ZEROPAGE          Offs=000000  Size=000000  Align=00001  Fill=0000
    NULL              Offs=000000  Size=000000  Align=00001  Fill=0000
../00.LIBRERIE/CC65/lib/apple2.lib(exehdr.o):
    CODE              Offs=001732  Size=000000  Align=00001  Fill=0000
    RODATA            Offs=00029D  Size=000000  Align=00001  Fill=0000
    BSS               Offs=000D0A  Size=000000  Align=00001  Fill=0000
    DATA              Offs=000608  Size=000000  Align=00001  Fill=0000
    ZEROPAGE          Offs=000000  Size=000000  Align=00001  Fill=0000
    NULL              Offs=000000  Size=000000  Align=00001  Fill=0000
    EXEHDR            Offs=000000  Size=00003A  Align=00001  Fill=0000
../00.LIBRERIE/CC65/lib/apple2.lib(filedes.o):
    CODE              Offs=001732  Size=000016  Align=00001  Fill=0000
    RODATA            Offs=00029D  Size=000000  Align=00001  Fill=0000
    BSS               Offs=000D0A  Size=000000  Align=00001  Fill=0000
    DATA              Offs=000608  Size=000020  Align=00001  Fill=0000
    ZEROPAGE          Offs=000000  Size=000000  Align=00001  Fill=0000
    NULL              Offs=000000  Size=000000  Align=00001  Fill=0000
../00.LIBRERIE/CC65/lib/apple2.lib(fputc.o):
    CODE              Offs=001748  Size=000047  Align=00001  Fill=0000
    RODATA            Offs=00029D  Size=000000  Align=00001  Fill=0000
    BSS               Offs=000D0A  Size=000002  Align=00001  Fill=0000
    DATA              Offs=000628  Size=000000  Align=00001  Fill=0000
    ZEROPAGE          Offs=000000  Size=000000  Align=00001  Fill=0000
    NULL              Offs=000000  Size=000000  Align=00001  Fill=0000
../00.LIBRERIE/CC65/lib/apple2.lib(fwrite.o):
    CODE              Offs=00178F  Size=000079  Align=00001  Fill=0000
    RODATA            Offs=00029D  Size=000000  Align=00001  Fill=0000
    BSS               Offs=000D0C  Size=000002  Align=00001  Fill=0000
    DATA              Offs=000628  Size=000000  Align=00001  Fill=0000
    ZEROPAGE          Offs=000000  Size=000000  Align=00001  Fill=0000
    NULL              Offs=000000  Size=000000  Align=00001  Fill=0000
../00.LIBRERIE/CC65/lib/apple2.lib(icmp.o):
    CODE              Offs=001808  Size=00002E  Align=00001  Fill=0000
    RODATA            Offs=00029D  Size=000000  Align=00001  Fill=0000
    BSS               Offs=000D0E  Size=000000  Align=00001  Fill=0000
    DATA              Offs=000628  Size=000000  Align=00001  Fill=0000
    ZEROPAGE          Offs=000000  Size=000000  Align=00001  Fill=0000
    NULL              Offs=000000  Size=000000  Align=00001  Fill=0000
../00.LIBRERIE/CC65/lib/apple2.lib(incsp2.o):
    CODE              Offs=001836  Size=000016  Align=00001  Fill=0000
    RODATA            Offs=00029D  Size=000000  Align=00001  Fill=0000
    BSS               Offs=000D0E  Size=000000  Align=00001  Fill=0000
    DATA              Offs=000628  Size=000000  Align=00001  Fill=0000
    ZEROPAGE          Offs=000000  Size=000000  Align=00001  Fill=0000
    NULL              Offs=000000  Size=000000  Align=00001  Fill=0000
../00.LIBRERIE/CC65/lib/apple2.lib(incsp4.o):
    CODE              Offs=00184C  Size=000005  Align=00001  Fill=0000
    RODATA            Offs=00029D  Size=000000  Align=00001  Fill=0000
    BSS               Offs=000D0E  Size=000000  Align=00001  Fill=0000
    DATA              Offs=000628  Size=000000  Align=00001  Fill=0000
    ZEROPAGE          Offs=000000  Size=000000  Align=00001  Fill=0000
    NULL              Offs=000000  Size=000000  Align=00001  Fill=0000
../00.LIBRERIE/CC65/lib/apple2.lib(incsp6.o):
    CODE              Offs=001851  Size=000005  Align=00001  Fill=0000
    RODATA            Offs=00029D  Size=000000  Align=00001  Fill=0000
    BSS               Offs=000D0E  Size=000000  Align=00001  Fill=0000
    DATA              Offs=000628  Size=000000  Align=00001  Fill=0000
    ZEROPAGE          Offs=000000  Size=000000  Align=00001  Fill=0000
    NULL              Offs=000000  Size=000000  Align=00001  Fill=0000
../00.LIBRERIE/CC65/lib/apple2.lib(incsp8.o):
    CODE              Offs=001856  Size=000005  Align=00001  Fill=0000
    RODATA            Offs=00029D  Size=000000  Align=00001  Fill=0000
    BSS               Offs=000D0E  Size=000000  Align=00001  Fill=0000
    DATA              Offs=000628  Size=000000  Align=00001  Fill=0000
    ZEROPAGE          Offs=000000  Size=000000  Align=00001  Fill=0000
    NULL              Offs=000000  Size=000000  Align=00001  Fill=0000
../00.LIBRERIE/CC65/lib/apple2.lib(ldaui.o):
    CODE              Offs=00185B  Size=000009  Align=00001  Fill=0000
    RODATA            Offs=00029D  Size=000000  Align=00001  Fill=0000
    BSS               Offs=000D0E  Size=000000  Align=00001  Fill=0000
    DATA              Offs=000628  Size=000000  Align=00001  Fill=0000
    ZEROPAGE          Offs=000000  Size=000000  Align=00001  Fill=0000
    NULL              Offs=000000  Size=000000  Align=00001  Fill=0000
../00.LIBRERIE/CC65/lib/apple2.lib(ldaxsp.o):
    CODE              Offs=001864  Size=000009  Align=00001  Fill=0000
    RODATA            Offs=00029D  Size=000000  Align=00001  Fill=0000
    BSS               Offs=000D0E  Size=000000  Align=00001  Fill=0000
    DATA              Offs=000628  Size=000000  Align=00001  Fill=0000
    ZEROPAGE          Offs=000000  Size=000000  Align=00001  Fill=0000
    NULL              Offs=000000  Size=000000  Align=00001  Fill=0000
../00.LIBRERIE/CC65/lib/apple2.lib(leaaxsp.o):
    CODE              Offs=00186D  Size=00000C  Align=00001  Fill=0000
    RODATA            Offs=00029D  Size=000000  Align=00001  Fill=0000
    BSS               Offs=000D0E  Size=000000  Align=00001  Fill=0000
    DATA              Offs=000628  Size=000000  Align=00001  Fill=0000
    ZEROPAGE          Offs=000000  Size=000000  Align=00001  Fill=0000
    NULL              Offs=000000  Size=000000  Align=00001  Fill=0000
../00.LIBRERIE/CC65/lib/apple2.lib(lneg.o):
    CODE              Offs=001879  Size=00001E  Align=00001  Fill=0000
    RODATA            Offs=00029D  Size=000000  Align=00001  Fill=0000
    BSS               Offs=000D0E  Size=000000  Align=00001  Fill=0000
    DATA              Offs=000628  Size=000000  Align=00001  Fill=0000
    ZEROPAGE          Offs=000000  Size=000000  Align=00001  Fill=0000
    NULL              Offs=000000  Size=000000  Align=00001  Fill=0000
../00.LIBRERIE/CC65/lib/apple2.lib(lpop.o):
    CODE              Offs=001897  Size=000015  Align=00001  Fill=0000
    RODATA            Offs=00029D  Size=000000  Align=00001  Fill=0000
    BSS               Offs=000D0E  Size=000000  Align=00001  Fill=0000
    DATA              Offs=000628  Size=000000  Align=00001  Fill=0000
    ZEROPAGE          Offs=000000  Size=000000  Align=00001  Fill=0000
    NULL              Offs=000000  Size=000000  Align=00001  Fill=0000
../00.LIBRERIE/CC65/lib/apple2.lib(lpush.o):
    CODE              Offs=0018AC  Size=000021  Align=00001  Fill=0000
    RODATA            Offs=00029D  Size=000000  Align=00001  Fill=0000
    BSS               Offs=000D0E  Size=000000  Align=00001  Fill=0000
    DATA              Offs=000628  Size=000000  Align=00001  Fill=0000
    ZEROPAGE          Offs=000000  Size=000000  Align=00001  Fill=0000
    NULL              Offs=000000  Size=000000  Align=00001  Fill=0000
../00.LIBRERIE/CC65/lib/apple2.lib(lt.o):
    CODE              Offs=0018CD  Size=00000A  Align=00001  Fill=0000
    RODATA            Offs=00029D  Size=000000  Align=00001  Fill=0000
    BSS               Offs=000D0E  Size=000000  Align=00001  Fill=0000
    DATA              Offs=000628  Size=000000  Align=00001  Fill=0000
    ZEROPAGE          Offs=000000  Size=000000  Align=00001  Fill=0000
    NULL              Offs=000000  Size=000000  Align=00001  Fill=0000
../00.LIBRERIE/CC65/lib/apple2.lib(ltoa.o):
    CODE              Offs=0018D7  Size=000095  Align=00001  Fill=0000
    RODATA            Offs=00029D  Size=000000  Align=00001  Fill=0000
    BSS               Offs=000D0E  Size=000000  Align=00001  Fill=0000
    DATA              Offs=000628  Size=000000  Align=00001  Fill=0000
    ZEROPAGE          Offs=000000  Size=000000  Align=00001  Fill=0000
    NULL              Offs=000000  Size=000000  Align=00001  Fill=0000
../00.LIBRERIE/CC65/lib/apple2.lib(makebool.o):
    CODE              Offs=00196C  Size=00002C  Align=00001  Fill=0000
    RODATA            Offs=00029D  Size=000000  Align=00001  Fill=0000
    BSS               Offs=000D0E  Size=000000  Align=00001  Fill=0000
    DATA              Offs=000628  Size=000000  Align=00001  Fill=0000
    ZEROPAGE          Offs=000000  Size=000000  Align=00001  Fill=0000
    NULL              Offs=000000  Size=000000  Align=00001  Fill=0000
../00.LIBRERIE/CC65/lib/apple2.lib(mli.o):
    CODE              Offs=001998  Size=000000  Align=00001  Fill=0000
    RODATA            Offs=00029D  Size=000000  Align=00001  Fill=0000
    BSS               Offs=000D0E  Size=000012  Align=00001  Fill=0000
    DATA              Offs=000628  Size=000024  Align=00001  Fill=0000
    ZEROPAGE          Offs=000000  Size=000000  Align=00001  Fill=0000
    NULL              Offs=000000  Size=000000  Align=00001  Fill=0000
../00.LIBRERIE/CC65/lib/apple2.lib(mul.o):
    CODE              Offs=001998  Size=000045  Align=00001  Fill=0000
    RODATA            Offs=00029D  Size=000000  Align=00001  Fill=0000
    BSS               Offs=000D20  Size=000000  Align=00001  Fill=0000
    DATA              Offs=00064C  Size=000000  Align=00001  Fill=0000
    ZEROPAGE          Offs=000000  Size=000000  Align=00001  Fill=0000
    NULL              Offs=000000  Size=000000  Align=00001  Fill=0000
../00.LIBRERIE/CC65/lib/apple2.lib(mul8.o):
    CODE              Offs=0019DD  Size=00003A  Align=00001  Fill=0000
    RODATA            Offs=00029D  Size=000000  Align=00001  Fill=0000
    BSS               Offs=000D20  Size=000000  Align=00001  Fill=0000
    DATA              Offs=00064C  Size=000000  Align=00001  Fill=0000
    ZEROPAGE          Offs=000000  Size=000000  Align=00001  Fill=0000
    NULL              Offs=000000  Size=000000  Align=00001  Fill=0000
../00.LIBRERIE/CC65/lib/apple2.lib(oserror.o):
    CODE              Offs=001A17  Size=000016  Align=00001  Fill=0000
    RODATA            Offs=00029D  Size=000032  Align=00001  Fill=0000
    BSS               Offs=000D20  Size=000000  Align=00001  Fill=0000
    DATA              Offs=00064C  Size=000000  Align=00001  Fill=0000
    ZEROPAGE          Offs=000000  Size=000000  Align=00001  Fill=0000
    NULL              Offs=000000  Size=000000  Align=00001  Fill=0000
../00.LIBRERIE/CC65/lib/apple2.lib(popptr1.o):
    CODE              Offs=001A2D  Size=00000E  Align=00001  Fill=0000
    RODATA            Offs=0002CF  Size=000000  Align=00001  Fill=0000
    BSS               Offs=000D20  Size=000000  Align=00001  Fill=0000
    DATA              Offs=00064C  Size=000000  Align=00001  Fill=0000
    ZEROPAGE          Offs=000000  Size=000000  Align=00001  Fill=0000
    NULL              Offs=000000  Size=000000  Align=00001  Fill=0000
../00.LIBRERIE/CC65/lib/apple2.lib(printf.o):
    CODE              Offs=001A3B  Size=000033  Align=00001  Fill=0000
    RODATA            Offs=0002CF  Size=000000  Align=00001  Fill=0000
    BSS               Offs=000D20  Size=000001  Align=00001  Fill=0000
    DATA              Offs=00064C  Size=000000  Align=00001  Fill=0000
    ZEROPAGE          Offs=000000  Size=000000  Align=00001  Fill=0000
    NULL              Offs=000000  Size=000000  Align=00001  Fill=0000
../00.LIBRERIE/CC65/lib/apple2.lib(push1.o):
    CODE              Offs=001A6E  Size=000005  Align=00001  Fill=0000
    RODATA            Offs=0002CF  Size=000000  Align=00001  Fill=0000
    BSS               Offs=000D21  Size=000000  Align=00001  Fill=0000
    DATA              Offs=00064C  Size=000000  Align=00001  Fill=0000
    ZEROPAGE          Offs=000000  Size=000000  Align=00001  Fill=0000
    NULL              Offs=000000  Size=000000  Align=00001  Fill=0000
../00.LIBRERIE/CC65/lib/apple2.lib(pushax.o):
    CODE              Offs=001A73  Size=00001A  Align=00001  Fill=0000
    RODATA            Offs=0002CF  Size=000000  Align=00001  Fill=0000
    BSS               Offs=000D21  Size=000000  Align=00001  Fill=0000
    DATA              Offs=00064C  Size=000000  Align=00001  Fill=0000
    ZEROPAGE          Offs=000000  Size=000000  Align=00001  Fill=0000
    NULL              Offs=000000  Size=000000  Align=00001  Fill=0000
../00.LIBRERIE/CC65/lib/apple2.lib(pushptr1.o):
    CODE              Offs=001A8D  Size=000007  Align=00001  Fill=0000
    RODATA            Offs=0002CF  Size=000000  Align=00001  Fill=0000
    BSS               Offs=000D21  Size=000000  Align=00001  Fill=0000
    DATA              Offs=00064C  Size=000000  Align=00001  Fill=0000
    ZEROPAGE          Offs=000000  Size=000000  Align=00001  Fill=0000
    NULL              Offs=000000  Size=000000  Align=00001  Fill=0000
../00.LIBRERIE/CC65/lib/apple2.lib(pushwsp.o):
    CODE              Offs=001A94  Size=00001C  Align=00001  Fill=0000
    RODATA            Offs=0002CF  Size=000000  Align=00001  Fill=0000
    BSS               Offs=000D21  Size=000000  Align=00001  Fill=0000
    DATA              Offs=00064C  Size=000000  Align=00001  Fill=0000
    ZEROPAGE          Offs=000000  Size=000000  Align=00001  Fill=0000
    NULL              Offs=000000  Size=000000  Align=00001  Fill=0000
../00.LIBRERIE/CC65/lib/apple2.lib(putchar.o):
    CODE              Offs=001AB0  Size=00000C  Align=00001  Fill=0000
    RODATA            Offs=0002CF  Size=000000  Align=00001  Fill=0000
    BSS               Offs=000D21  Size=000000  Align=00001  Fill=0000
    DATA              Offs=00064C  Size=000000  Align=00001  Fill=0000
    ZEROPAGE          Offs=000000  Size=000000  Align=00001  Fill=0000
    NULL              Offs=000000  Size=000000  Align=00001  Fill=0000
../00.LIBRERIE/CC65/lib/apple2.lib(returnFFFF.o):
    CODE              Offs=001ABC  Size=000004  Align=00001  Fill=0000
    RODATA            Offs=0002CF  Size=000000  Align=00001  Fill=0000
    BSS               Offs=000D21  Size=000000  Align=00001  Fill=0000
    DATA              Offs=00064C  Size=000000  Align=00001  Fill=0000
    ZEROPAGE          Offs=000000  Size=000000  Align=00001  Fill=0000
    NULL              Offs=000000  Size=000000  Align=00001  Fill=0000
../00.LIBRERIE/CC65/lib/apple2.lib(rwcommon.o):
    CODE              Offs=001AC0  Size=00003D  Align=00001  Fill=0000
    RODATA            Offs=0002CF  Size=000000  Align=00001  Fill=0000
    BSS               Offs=000D21  Size=000000  Align=00001  Fill=0000
    DATA              Offs=00064C  Size=000000  Align=00001  Fill=0000
    ZEROPAGE          Offs=000000  Size=000000  Align=00001  Fill=0000
    NULL              Offs=000000  Size=000000  Align=00001  Fill=0000
../00.LIBRERIE/CC65/lib/apple2.lib(staxsp.o):
    CODE              Offs=001AFD  Size=00000B  Align=00001  Fill=0000
    RODATA            Offs=0002CF  Size=000000  Align=00001  Fill=0000
    BSS               Offs=000D21  Size=000000  Align=00001  Fill=0000
    DATA              Offs=00064C  Size=000000  Align=00001  Fill=0000
    ZEROPAGE          Offs=000000  Size=000000  Align=00001  Fill=0000
    NULL              Offs=000000  Size=000000  Align=00001  Fill=0000
../00.LIBRERIE/CC65/lib/apple2.lib(strlen.o):
    CODE              Offs=001B08  Size=000016  Align=00001  Fill=0000
    RODATA            Offs=0002CF  Size=000000  Align=00001  Fill=0000
    BSS               Offs=000D21  Size=000000  Align=00001  Fill=0000
    DATA              Offs=00064C  Size=000000  Align=00001  Fill=0000
    ZEROPAGE          Offs=000000  Size=000000  Align=00001  Fill=0000
    NULL              Offs=000000  Size=000000  Align=00001  Fill=0000
../00.LIBRERIE/CC65/lib/apple2.lib(strlower.o):
    CODE              Offs=001B1E  Size=000027  Align=00001  Fill=0000
    RODATA            Offs=0002CF  Size=000000  Align=00001  Fill=0000
    BSS               Offs=000D21  Size=000000  Align=00001  Fill=0000
    DATA              Offs=00064C  Size=000000  Align=00001  Fill=0000
    ZEROPAGE          Offs=000000  Size=000000  Align=00001  Fill=0000
    NULL              Offs=000000  Size=000000  Align=00001  Fill=0000
../00.LIBRERIE/CC65/lib/apple2.lib(subeqsp.o):
    CODE              Offs=001B45  Size=000015  Align=00001  Fill=0000
    RODATA            Offs=0002CF  Size=000000  Align=00001  Fill=0000
    BSS               Offs=000D21  Size=000000  Align=00001  Fill=0000
    DATA              Offs=00064C  Size=000000  Align=00001  Fill=0000
    ZEROPAGE          Offs=000000  Size=000000  Align=00001  Fill=0000
    NULL              Offs=000000  Size=000000  Align=00001  Fill=0000
../00.LIBRERIE/CC65/lib/apple2.lib(udiv.o):
    CODE              Offs=001B5A  Size=00004F  Align=00001  Fill=0000
    RODATA            Offs=0002CF  Size=000000  Align=00001  Fill=0000
    BSS               Offs=000D21  Size=000000  Align=00001  Fill=0000
    DATA              Offs=00064C  Size=000000  Align=00001  Fill=0000
    ZEROPAGE          Offs=000000  Size=000000  Align=00001  Fill=0000
    NULL              Offs=000000  Size=000000  Align=00001  Fill=0000
../00.LIBRERIE/CC65/lib/apple2.lib(uppercasemask.o):
    CODE              Offs=001BA9  Size=000000  Align=00001  Fill=0000
    RODATA            Offs=0002CF  Size=000000  Align=00001  Fill=0000
    BSS               Offs=000D21  Size=000000  Align=00001  Fill=0000
    DATA              Offs=00064C  Size=000001  Align=00001  Fill=0000
    ZEROPAGE          Offs=000000  Size=000000  Align=00001  Fill=0000
    NULL              Offs=000000  Size=000000  Align=00001  Fill=0000
../00.LIBRERIE/CC65/lib/apple2.lib(vfprintf.o):
    CODE              Offs=001BA9  Size=000061  Align=00001  Fill=0000
    RODATA            Offs=0002CF  Size=000000  Align=00001  Fill=0000
    BSS               Offs=000D21  Size=000000  Align=00001  Fill=0000
    DATA              Offs=00064D  Size=000008  Align=00001  Fill=0000
    ZEROPAGE          Offs=000000  Size=000000  Align=00001  Fill=0000
    NULL              Offs=000000  Size=000000  Align=00001  Fill=0000
../00.LIBRERIE/CC65/lib/apple2.lib(write.o):
    CODE              Offs=001C0A  Size=000071  Align=00001  Fill=0000
    RODATA            Offs=0002CF  Size=000000  Align=00001  Fill=0000
    BSS               Offs=000D21  Size=000000  Align=00001  Fill=0000
    DATA              Offs=000655  Size=000000  Align=00001  Fill=0000
    ZEROPAGE          Offs=000000  Size=000000  Align=00001  Fill=0000
    NULL              Offs=000000  Size=000000  Align=00001  Fill=0000
../00.LIBRERIE/CC65/lib/apple2.lib(zerobss.o):
    CODE              Offs=001C7B  Size=000023  Align=00001  Fill=0000
    RODATA            Offs=0002CF  Size=000000  Align=00001  Fill=0000
    BSS               Offs=000D21  Size=000000  Align=00001  Fill=0000
    DATA              Offs=000655  Size=000000  Align=00001  Fill=0000
    ZEROPAGE          Offs=000000  Size=000000  Align=00001  Fill=0000
    NULL              Offs=000000  Size=000000  Align=00001  Fill=0000
../00.LIBRERIE/CC65/lib/apple2.lib(zeropage.o):
    CODE              Offs=001C9E  Size=000000  Align=00001  Fill=0000
    RODATA            Offs=0002CF  Size=000000  Align=00001  Fill=0000
    BSS               Offs=000D21  Size=000000  Align=00001  Fill=0000
    DATA              Offs=000655  Size=000000  Align=00001  Fill=0000
    ZEROPAGE          Offs=000000  Size=00001A  Align=00001  Fill=0000
    NULL              Offs=000000  Size=000000  Align=00001  Fill=0000


Segment list:
-------------
Name                   Start     End    Size  Align
----------------------------------------------------
NULL                  000000  000000  000000  00001
ZEROPAGE              000080  000099  00001A  00001
EXEHDR                0007C9  000802  00003A  00001
STARTUP               000803  00080E  00000C  00001
LOWCODE               00080F  000818  00000A  00001
CODE                  000819  0024B6  001C9E  00001
RODATA                0024B7  002785  0002CF  00001
DATA                  002786  002DDA  000655  00001
INIT                  002DDB  002DF7  00001D  00001
BSS                   002DF8  003B18  000D21  00001
ONCE                  002DF8  002E83  00008C  00001


Exports list by name:
---------------------
COUT                      00080F RLA    __BSS_LOAD__              002DF8  LA    
__BSS_RUN__               002DF8 RLA    __BSS_SIZE__              000D21 REA    
__CONSTRUCTOR_COUNT__     000001 REA    __CONSTRUCTOR_TABLE__     002E82 RLA    
__DESTRUCTOR_COUNT__      000000 REA    __DESTRUCTOR_TABLE__      002786 RLA    
__EXEHDR__                000001 REA    __FILETYPE__              000006 REA    
__HIMEM__                 009600 REA    __LCADDR__                00D400 REA    
__LCSIZE__                000C00 REA    __LC_FILEOFFS__           000000  EA    
__LC_LAST__               00D400 RLA    __LC_SIZE__               000C00  EA    
__LC_START__              00D400 RLA    __MAIN_FILEOFFS__         00003A  EA    
__MAIN_LAST__             002E84 RLA    __MAIN_SIZE__             008DFD  EA    
__MAIN_START__            000803 RLA    __ONCE_LOAD__             002DF8 RLA    
__ONCE_RUN__              002DF8 RLA    __ONCE_SIZE__             00008C REA    
__STACKSIZE__             000800 REA    __STARTUP__               000001 REA    
__ZP_FILEOFFS__           000000  EA    __ZP_LAST__               00009A  LA    
__ZP_SIZE__               00001A  EA    __ZP_START__              000080  LA    
___directerrno            001A6A RLA    ___errno                  003B00 RLA    
___mappederrno            001A74 RLA    ___oserror                003AD4 RLA    
___osmaperrno             002230 RLA    ___seterrno               001E26 RLA    
__argc                    002D61  LA    __argv                    002D63  LA    
__ctype                   0026C9 RLA    __ctypeidx                0026D4 RLA    
__dos_type                002D8D RLA    __filetab                 002D40  LA    
__hextab                  0026A6 RLA    __longminstr              0026B6 RLA    
__printf                  001B75 RLA    _cs8900a                  0027BD RLA    
_cs8900a_name             002644 RLA    _exit                     001E9C RLA    
_fputc                    001F61 RLA    _fwrite                   001FA8 RLA    
_ip65_error               003A42  LA    _ip65_init                000D2C RLA    
_ip65_process             000D34 RLA    _ip65_random_word         000CCD  LA    
_ip65_strerror            000C3C  LA    _lan91c96                 002939 RLA    
_lan91c96_name            002673 RLA    _ltoa                     002108 RLA    
_main                     000A08 RLA    _make_request             00092F  LA    
_on_tcp_receive           000819  LA    _printf                   002254 RLA    
_putchar                  0022C9 RLA    _stderr                   002D5C  LA    
_stdin                    002D58  LA    _stdout                   002D5A RLA    
_strlen                   002321 RLA    _strlen_ptr4              002325  LA    
_strlower                 002337 RLA    _strlwr                   002337  LA    
_tcp_close                000D9F  LA    _tcp_connect              000D6D RLA    
_tcp_listen               000D3C  LA    _tcp_send                 000DA7 RLA    
_tcp_send_keep_alive      000DB8  LA    _ultoa                    002149 RLA    
_vfprintf                 0023FA RLA    _w5100                    002AC4 RLA    
_w5100_name               00269A RLA    _write                    002423 RLA    
abort_key                 002D3F  LA    abort_key_default         00009B  EZ    
abort_key_disable         000080  EZ    ac_size                   000008  EZ    
acc16                     000088 REZ    acc32                     000088 REZ    
add_16_32                 0012BF RLA    add_32_32                 0012A0  LA    
addeq0sp                  001E4B  LA    addeqysp                  001E4D RLA    
addysp                    001E5D RLA    addysp1                   001E5C  LA    
arp_add                   000B9F  LA    arp_cache                 002E03  LA    
arp_calculate_gateway_mask 000A1D  LA    arp_init                  000A13 RLA    
arp_ip                    002DFF RLA    arp_lookup                000A42 RLA    
arp_mac                   002DF9 RLA    arp_process               000B21 RLA    
axlong                    001E6A RLA    axulong                   001E70 RLA    
bnega                     001E7B RLA    bnegax                    001E77  LA    
booleq                    00218B RLA    boolge                    00219C  LA    
boolgt                    00219A  LA    boolle                    002192  LA    
boollt                    002194 RLA    boolne                    002185 RLA    
booluge                   0021AC  LA    boolugt                   0021AA  LA    
boolule                   0021A2  LA    boolult                   0021A4  LA    
callmain                  001E85 RLA    callmli                   002DAE RLA    
cfg_dns                   002799  LA    cfg_gateway               002795 RLA    
cfg_ip                    00278D RLA    cfg_mac                   002787 RLA    
cfg_netmask               002791 RLA    cfg_tftp_server           0027A1  LA    
check_for_abort_key       001A5B RLA    checkferror               001EC7 RLA    
cmp_16_16                 001282 RLA    cmp_32_32                 001266 RLA    
condes                    002D65  LA    copy_dest                 00008A REZ    
copy_src                  000088 REZ    copymem                   000C15 RLA    
ctypemask                 001EF1  LA    ctypemaskdirect           001EF5 RLA    
decax1                    001F0F RLA    decax2                    001F16 RLA    
decax3                    001F1D RLA    decsp2                    001F24 RLA    
decsp4                    001F31 RLA    decsp6                    001F3E RLA    
dhcp_server               00279D  LA    done                      002D8A RLA    
donelib                   001ED3 RLA    eth_data                  00000E REZ    
eth_dest                  000000 REZ    eth_init                  0019F2 RLA    
eth_inp                   002E63 RLA    eth_inp_len               002E5F RLA    
eth_name                  003ABD  LA    eth_outp                  003451 RLA    
eth_outp_len              002E61 RLA    eth_proto_arp             000006 REZ    
eth_proto_ip              000000 REZ    eth_rx                    002D18 RLA    
eth_set_broadcast_dest    000CAD RLA    eth_set_my_mac_src        000CB8 RLA    
eth_set_proto             000CC4 RLA    eth_src                   000006 REZ    
eth_tx                    002D2C RLA    eth_type                  00000C  EZ    
fdtab                     002D8E RLA    getfd                     001F4B RLA    
icmp_add_listener         001205  LA    icmp_callback             003A70  LA    
icmp_cksum                000002  EZ    icmp_code                 000001  EZ    
icmp_data                 000004  EZ    icmp_init                 001159 RLA    
icmp_inp                  002E85  EA    icmp_outp                 003473  EA    
icmp_process              00115F RLA    icmp_remove_listener      001231  LA    
icmp_type                 000000  EZ    incsp2                    002057 RLA    
incsp4                    002065 RLA    incsp6                    00206A RLA    
incsp8                    00206F RLA    initdostype               002E6E  LAI   
initlib                   002DF8 RLA    ip65_ctr                  003A3F  LA    
ip65_ctr_arp              003A40  LA    ip65_ctr_ip               003A41  LA    
ip65_error                003A42 RLA    ip65_init                 000CF4 RLA    
ip65_process              000D0A RLA    ip65_random_word          000CCD RLA    
ip65_strerror             000C3C RLA    ip_broadcast              003A68 RLA    
ip_calc_cksum             0010B5 RLA    ip_cksum_ptr              00008A REZ    
ip_create_packet          001021 RLA    ip_data                   000014 REZ    
ip_dest                   000010 REZ    ip_frag                   000006  EZ    
ip_header_cksum           00000A REZ    ip_id                     000004 REZ    
ip_init                   000F4E RLA    ip_inp                    002E71 REA    
ip_len                    000002 REZ    ip_outp                   00345F REA    
ip_process                000F63 RLA    ip_proto                  000009 REZ    
ip_proto_icmp             000001  EZ    ip_proto_tcp              000006 REZ    
ip_proto_udp              000011 REZ    ip_send                   00104E RLA    
ip_src                    00000C REZ    ip_tos                    000001  EZ    
ip_ttl                    000008  EZ    ip_ver_ihl                000000  EZ    
ldauidx                   002074 RLA    ldax0sp                   00207D  LA    
ldaxysp                   00207F RLA    leaa0sp                   002086 RLA    
leaaxsp                   002088  LA    mliparam                  003B06 RLA    
mul8x16                   0021F8 RLA    mul8x16a                  002202 RLA    
mul_8_16                  0012DB  LA    negeax                    002092 RLA    
op32                      00008A REZ    popax                     00204F RLA    
popeax                    0020B0 RLA    popptr1                   002246 RLA    
ptr1                      000088 RLZ    ptr2                      00008A RLZ    
ptr3                      00008C RLZ    ptr4                      00008E RLZ    
push0                     00228C  LA    push0ax                   0020C8  LA    
push1                     002287 RLA    pusha0                    00228E RLA    
pushax                    002290 RLA    pusheax                   0020CE RLA    
pushl0                    0020C5  LA    pushptr1                  0022A6 RLA    
pushw0sp                  0022AD  LA    pushwysp                  0022AF RLA    
regbank                   000094 RLZ    regsave                   000084  LZ    
reset                     001EDF RLA    return                    001EEA  LA    
returnFFFF                0022D5 RLA    rvsave                    002DF5 RLA    
rwcommon                  0022E6 RLA    rwepilog                  002309 RLA    
rwprolog                  0022D9 RLA    sp                        000080 RLZ    
sreg                      000082 RLZ    stax0sp                   002316  LA    
staxysp                   002318 RLA    sub_16_16                 00128A RLA    
subeq0sp                  00235E  LA    subeqysp                  002360 RLA    
tcp_callback              003A94 RLA    tcp_close                 001414 RLA    
tcp_connect               00135C RLA    tcp_connect_ip            003AB6 RLA    
tcp_connect_remote_port   003AB4  LA    tcp_inbound_data_length   003A9C RLA    
tcp_inbound_data_ptr      003A9A RLA    tcp_init                  001303  LA    
tcp_listen                001307 RLA    tcp_process               0016FA  LA    
tcp_remote_ip             003A80 RLA    tcp_send                  0014E3 RLA    
tcp_send_data_len         003A92 RLA    tcp_send_keep_alive       00192D REA    
tcp_send_string           0014B3  LA    tcp_state                 003A7B  LA    
timer_init                001A2D RLA    timer_read                001A38 RLA    
timer_seconds             001A58  LA    timer_timeout             000DC0 RLA    
tmp1                      000090 RLZ    tmp2                      000091 RLZ    
tmp3                      000092 RLZ    tmp4                      000093 RLZ    
tosadda0                  001E2F  LA    tosaddax                  001E31 RLA    
tosicmp                   002023 RLA    tosicmp0                  002021  LA    
toslt00                   0020E6  LA    toslta0                   0020E8  LA    
tosltax                   0020EA RLA    tosmula0                  0021F6  LA    
tosmulax                  0021B1  LA    tosudiva0                 002373  LA    
tosudivax                 002375 RLA    tosumula0                 0021F6  LA    
tosumulax                 0021B1 RLA    udiv16                    002384  LA    
udp_add_listener          000E0B  LA    udp_callback              003A45  LA    
udp_cksum                 000006  EZ    udp_data                  000008  EZ    
udp_dest_port             000002  EZ    udp_init                  000DD8 RLA    
udp_inp                   002E85  EA    udp_len                   000004  EZ    
udp_outp                  003473  EA    udp_process               000DDE RLA    
udp_remove_listener       000E51  LA    udp_send                  000E9D  LA    
udp_send_dest             003A47  LA    udp_send_dest_port        003A4D  LA    
udp_send_internal         000EB2  LA    udp_send_len              003A4F  LA    
udp_send_src_port         003A4B  LA    udp_src_port              000000  EZ    
uppercasemask             002DD2 RLA    zerobss                   002494 RLA    
zpsave                    002DDB RLA    


Exports list by value:
----------------------
__ZP_FILEOFFS__           000000  EA    udp_src_port              000000  EZ    
eth_proto_ip              000000 REZ    __LC_FILEOFFS__           000000  EA    
ip_ver_ihl                000000  EZ    icmp_type                 000000  EZ    
__DESTRUCTOR_COUNT__      000000 REA    eth_dest                  000000 REZ    
ip_proto_icmp             000001  EZ    ip_tos                    000001  EZ    
__CONSTRUCTOR_COUNT__     000001 REA    icmp_code                 000001  EZ    
__STARTUP__               000001 REA    __EXEHDR__                000001 REA    
udp_dest_port             000002  EZ    icmp_cksum                000002  EZ    
ip_len                    000002 REZ    udp_len                   000004  EZ    
icmp_data                 000004  EZ    ip_id                     000004 REZ    
__FILETYPE__              000006 REA    ip_frag                   000006  EZ    
eth_src                   000006 REZ    eth_proto_arp             000006 REZ    
udp_cksum                 000006  EZ    ip_proto_tcp              000006 REZ    
udp_data                  000008  EZ    ip_ttl                    000008  EZ    
ac_size                   000008  EZ    ip_proto                  000009 REZ    
ip_header_cksum           00000A REZ    eth_type                  00000C  EZ    
ip_src                    00000C REZ    eth_data                  00000E REZ    
ip_dest                   000010 REZ    ip_proto_udp              000011 REZ    
ip_data                   000014 REZ    __ZP_SIZE__               00001A  EA    
__MAIN_FILEOFFS__         00003A  EA    abort_key_disable         000080  EZ    
sp                        000080 RLZ    __ZP_START__              000080  LA    
sreg                      000082 RLZ    regsave                   000084  LZ    
acc16                     000088 REZ    ptr1                      000088 RLZ    
copy_src                  000088 REZ    acc32                     000088 REZ    
copy_dest                 00008A REZ    op32                      00008A REZ    
ptr2                      00008A RLZ    ip_cksum_ptr              00008A REZ    
__ONCE_SIZE__             00008C REA    ptr3                      00008C RLZ    
ptr4                      00008E RLZ    tmp1                      000090 RLZ    
tmp2                      000091 RLZ    tmp3                      000092 RLZ    
tmp4                      000093 RLZ    regbank                   000094 RLZ    
__ZP_LAST__               00009A  LA    abort_key_default         00009B  EZ    
__STACKSIZE__             000800 REA    __MAIN_START__            000803 RLA    
COUT                      00080F RLA    _on_tcp_receive           000819  LA    
_make_request             00092F  LA    _main                     000A08 RLA    
arp_init                  000A13 RLA    arp_calculate_gateway_mask 000A1D  LA    
arp_lookup                000A42 RLA    arp_process               000B21 RLA    
arp_add                   000B9F  LA    __LCSIZE__                000C00 REA    
__LC_SIZE__               000C00  EA    copymem                   000C15 RLA    
ip65_strerror             000C3C RLA    _ip65_strerror            000C3C  LA    
eth_set_broadcast_dest    000CAD RLA    eth_set_my_mac_src        000CB8 RLA    
eth_set_proto             000CC4 RLA    _ip65_random_word         000CCD  LA    
ip65_random_word          000CCD RLA    ip65_init                 000CF4 RLA    
ip65_process              000D0A RLA    __BSS_SIZE__              000D21 REA    
_ip65_init                000D2C RLA    _ip65_process             000D34 RLA    
_tcp_listen               000D3C  LA    _tcp_connect              000D6D RLA    
_tcp_close                000D9F  LA    _tcp_send                 000DA7 RLA    
_tcp_send_keep_alive      000DB8  LA    timer_timeout             000DC0 RLA    
udp_init                  000DD8 RLA    udp_process               000DDE RLA    
udp_add_listener          000E0B  LA    udp_remove_listener       000E51  LA    
udp_send                  000E9D  LA    udp_send_internal         000EB2  LA    
ip_init                   000F4E RLA    ip_process                000F63 RLA    
ip_create_packet          001021 RLA    ip_send                   00104E RLA    
ip_calc_cksum             0010B5 RLA    icmp_init                 001159 RLA    
icmp_process              00115F RLA    icmp_add_listener         001205  LA    
icmp_remove_listener      001231  LA    cmp_32_32                 001266 RLA    
cmp_16_16                 001282 RLA    sub_16_16                 00128A RLA    
add_32_32                 0012A0  LA    add_16_32                 0012BF RLA    
mul_8_16                  0012DB  LA    tcp_init                  001303  LA    
tcp_listen                001307 RLA    tcp_connect               00135C RLA    
tcp_close                 001414 RLA    tcp_send_string           0014B3  LA    
tcp_send                  0014E3 RLA    tcp_process               0016FA  LA    
tcp_send_keep_alive       00192D REA    eth_init                  0019F2 RLA    
timer_init                001A2D RLA    timer_read                001A38 RLA    
timer_seconds             001A58  LA    check_for_abort_key       001A5B RLA    
___directerrno            001A6A RLA    ___mappederrno            001A74 RLA    
__printf                  001B75 RLA    ___seterrno               001E26 RLA    
tosadda0                  001E2F  LA    tosaddax                  001E31 RLA    
addeq0sp                  001E4B  LA    addeqysp                  001E4D RLA    
addysp1                   001E5C  LA    addysp                    001E5D RLA    
axlong                    001E6A RLA    axulong                   001E70 RLA    
bnegax                    001E77  LA    bnega                     001E7B RLA    
callmain                  001E85 RLA    _exit                     001E9C RLA    
checkferror               001EC7 RLA    donelib                   001ED3 RLA    
reset                     001EDF RLA    return                    001EEA  LA    
ctypemask                 001EF1  LA    ctypemaskdirect           001EF5 RLA    
decax1                    001F0F RLA    decax2                    001F16 RLA    
decax3                    001F1D RLA    decsp2                    001F24 RLA    
decsp4                    001F31 RLA    decsp6                    001F3E RLA    
getfd                     001F4B RLA    _fputc                    001F61 RLA    
_fwrite                   001FA8 RLA    tosicmp0                  002021  LA    
tosicmp                   002023 RLA    popax                     00204F RLA    
incsp2                    002057 RLA    incsp4                    002065 RLA    
incsp6                    00206A RLA    incsp8                    00206F RLA    
ldauidx                   002074 RLA    ldax0sp                   00207D  LA    
ldaxysp                   00207F RLA    leaa0sp                   002086 RLA    
leaaxsp                   002088  LA    negeax                    002092 RLA    
popeax                    0020B0 RLA    pushl0                    0020C5  LA    
push0ax                   0020C8  LA    pusheax                   0020CE RLA    
toslt00                   0020E6  LA    toslta0                   0020E8  LA    
tosltax                   0020EA RLA    _ltoa                     002108 RLA    
_ultoa                    002149 RLA    boolne                    002185 RLA    
booleq                    00218B RLA    boolle                    002192  LA    
boollt                    002194 RLA    boolgt                    00219A  LA    
boolge                    00219C  LA    boolule                   0021A2  LA    
boolult                   0021A4  LA    boolugt                   0021AA  LA    
booluge                   0021AC  LA    tosumulax                 0021B1 RLA    
tosmulax                  0021B1  LA    tosmula0                  0021F6  LA    
tosumula0                 0021F6  LA    mul8x16                   0021F8 RLA    
mul8x16a                  002202 RLA    ___osmaperrno             002230 RLA    
popptr1                   002246 RLA    _printf                   002254 RLA    
push1                     002287 RLA    push0                     00228C  LA    
pusha0                    00228E RLA    pushax                    002290 RLA    
pushptr1                  0022A6 RLA    pushw0sp                  0022AD  LA    
pushwysp                  0022AF RLA    _putchar                  0022C9 RLA    
returnFFFF                0022D5 RLA    rwprolog                  0022D9 RLA    
rwcommon                  0022E6 RLA    rwepilog                  002309 RLA    
stax0sp                   002316  LA    staxysp                   002318 RLA    
_strlen                   002321 RLA    _strlen_ptr4              002325  LA    
_strlower                 002337 RLA    _strlwr                   002337  LA    
subeq0sp                  00235E  LA    subeqysp                  002360 RLA    
tosudiva0                 002373  LA    tosudivax                 002375 RLA    
udiv16                    002384  LA    _vfprintf                 0023FA RLA    
_write                    002423 RLA    zerobss                   002494 RLA    
_cs8900a_name             002644 RLA    _lan91c96_name            002673 RLA    
_w5100_name               00269A RLA    __hextab                  0026A6 RLA    
__longminstr              0026B6 RLA    __ctype                   0026C9 RLA    
__ctypeidx                0026D4 RLA    __DESTRUCTOR_TABLE__      002786 RLA    
cfg_mac                   002787 RLA    cfg_ip                    00278D RLA    
cfg_netmask               002791 RLA    cfg_gateway               002795 RLA    
cfg_dns                   002799  LA    dhcp_server               00279D  LA    
cfg_tftp_server           0027A1  LA    _cs8900a                  0027BD RLA    
_lan91c96                 002939 RLA    _w5100                    002AC4 RLA    
eth_rx                    002D18 RLA    eth_tx                    002D2C RLA    
abort_key                 002D3F  LA    __filetab                 002D40  LA    
_stdin                    002D58  LA    _stdout                   002D5A RLA    
_stderr                   002D5C  LA    __argc                    002D61  LA    
__argv                    002D63  LA    condes                    002D65  LA    
done                      002D8A RLA    __dos_type                002D8D RLA    
fdtab                     002D8E RLA    callmli                   002DAE RLA    
uppercasemask             002DD2 RLA    zpsave                    002DDB RLA    
rvsave                    002DF5 RLA    initlib                   002DF8 RLA    
__BSS_RUN__               002DF8 RLA    __BSS_LOAD__              002DF8  LA    
__ONCE_RUN__              002DF8 RLA    __ONCE_LOAD__             002DF8 RLA    
arp_mac                   002DF9 RLA    arp_ip                    002DFF RLA    
arp_cache                 002E03  LA    eth_inp_len               002E5F RLA    
eth_outp_len              002E61 RLA    eth_inp                   002E63 RLA    
initdostype               002E6E  LAI   ip_inp                    002E71 REA    
__CONSTRUCTOR_TABLE__     002E82 RLA    __MAIN_LAST__             002E84 RLA    
icmp_inp                  002E85  EA    udp_inp                   002E85  EA    
eth_outp                  003451 RLA    ip_outp                   00345F REA    
udp_outp                  003473  EA    icmp_outp                 003473  EA    
ip65_ctr                  003A3F  LA    ip65_ctr_arp              003A40  LA    
ip65_ctr_ip               003A41  LA    ip65_error                003A42 RLA    
_ip65_error               003A42  LA    udp_callback              003A45  LA    
udp_send_dest             003A47  LA    udp_send_src_port         003A4B  LA    
udp_send_dest_port        003A4D  LA    udp_send_len              003A4F  LA    
ip_broadcast              003A68 RLA    icmp_callback             003A70  LA    
tcp_state                 003A7B  LA    tcp_remote_ip             003A80 RLA    
tcp_send_data_len         003A92 RLA    tcp_callback              003A94 RLA    
tcp_inbound_data_ptr      003A9A RLA    tcp_inbound_data_length   003A9C RLA    
tcp_connect_remote_port   003AB4  LA    tcp_connect_ip            003AB6 RLA    
eth_name                  003ABD  LA    ___oserror                003AD4 RLA    
___errno                  003B00 RLA    mliparam                  003B06 RLA    
__MAIN_SIZE__             008DFD  EA    __HIMEM__                 009600 REA    
__LC_LAST__               00D400 RLA    __LC_START__              00D400 RLA    
__LCADDR__                00D400 REA    


Imports list:
-------------
COUT (cout.o):
    write.o                   apple2/write.s:9
__BSS_LOAD__ ([linker generated]):
__BSS_RUN__ ([linker generated]):
    zerobss.o                 common/zerobss.s:8
__BSS_SIZE__ ([linker generated]):
    zerobss.o                 common/zerobss.s:8
__CONSTRUCTOR_COUNT__ ([linker generated]):
    condes.o                  runtime/condes.s:18
__CONSTRUCTOR_TABLE__ ([linker generated]):
    condes.o                  runtime/condes.s:18
__DESTRUCTOR_COUNT__ ([linker generated]):
    condes.o                  runtime/condes.s:19
__DESTRUCTOR_TABLE__ ([linker generated]):
    condes.o                  runtime/condes.s:19
__EXEHDR__ (exehdr.o):
    [linker generated]        C:\UTILITY\cc65\cfg/apple2.cfg:7
__FILETYPE__ ([linker generated]):
    exehdr.o                  apple2/exehdr.s:9
__HIMEM__ ([linker generated]):
    [linker generated]        C:\UTILITY\cc65\cfg/apple2.cfg:18
    [linker generated]        C:\UTILITY\cc65\cfg/apple2.cfg:17
__LCADDR__ ([linker generated]):
    [linker generated]        C:\UTILITY\cc65\cfg/apple2.cfg:19
__LCSIZE__ ([linker generated]):
    [linker generated]        C:\UTILITY\cc65\cfg/apple2.cfg:19
__LC_FILEOFFS__ ([linker generated]):
__LC_LAST__ ([linker generated]):
    crt0.o                    apple2/crt0.s:14
__LC_SIZE__ ([linker generated]):
__LC_START__ ([linker generated]):
    crt0.o                    apple2/crt0.s:14
__MAIN_FILEOFFS__ ([linker generated]):
__MAIN_LAST__ ([linker generated]):
    exehdr.o                  apple2/exehdr.s:10
__MAIN_SIZE__ ([linker generated]):
__MAIN_START__ ([linker generated]):
    exehdr.o                  apple2/exehdr.s:10
__ONCE_LOAD__ ([linker generated]):
    crt0.o                    apple2/crt0.s:13
__ONCE_RUN__ ([linker generated]):
    [linker generated]        C:\UTILITY\cc65\cfg/apple2.cfg:18
    [linker generated]        C:\UTILITY\cc65\cfg/apple2.cfg:18
__ONCE_SIZE__ ([linker generated]):
    crt0.o                    apple2/crt0.s:13
__STACKSIZE__ ([linker generated]):
    [linker generated]        C:\UTILITY\cc65\cfg/apple2.cfg:18
__STARTUP__ (crt0.o):
    rest_hello.o              rest_hello.s:13
__ZP_FILEOFFS__ ([linker generated]):
__ZP_LAST__ ([linker generated]):
__ZP_SIZE__ ([linker generated]):
__ZP_START__ ([linker generated]):
___directerrno (_directerrno.o):
    write.o                   /home/runner/work/cc65/cc65/asminc/errno.inc:10
___errno (errno.o):
    _seterrno.o               /home/runner/work/cc65/cc65/asminc/errno.inc:7
___mappederrno (_mappederrno.o):
    rwcommon.o                /home/runner/work/cc65/cc65/asminc/errno.inc:10
    write.o                   /home/runner/work/cc65/cc65/asminc/errno.inc:10
___oserror (_oserror.o):
    rwcommon.o                /home/runner/work/cc65/cc65/asminc/errno.inc:7
    _mappederrno.o            /home/runner/work/cc65/cc65/asminc/errno.inc:7
    _directerrno.o            /home/runner/work/cc65/cc65/asminc/errno.inc:7
___osmaperrno (oserror.o):
    _mappederrno.o            /home/runner/work/cc65/cc65/asminc/errno.inc:8
___seterrno (_seterrno.o):
    _mappederrno.o            /home/runner/work/cc65/cc65/asminc/errno.inc:9
    _directerrno.o            /home/runner/work/cc65/cc65/asminc/errno.inc:9
    fwrite.o                  /home/runner/work/cc65/cc65/asminc/errno.inc:9
__argc (callmain.o):
__argv (callmain.o):
__ctype (ctype.o):
    ctypemask.o               common/ctypemask.s:23
__ctypeidx (ctype.o):
    ctypemask.o               common/ctypemask.s:24
__dos_type (dosdetect.o):
    mli.o                     apple2/mli.s:7
__filetab (_file.o):
__hextab (_hextab.o):
    ltoa.o                    common/ltoa.s:10
__longminstr (_longminstr.o):
    ltoa.o                    common/ltoa.s:10
__printf (_printf.o):
    vfprintf.o                common/vfprintf.s:10
_cs8900a (uthernet.o):
    a2combo.o                 ethernetcombo.s:19
_cs8900a_name (uthernet.o):
    a2combo.o                 ethernetcombo.s:20
_exit (callmain.o):
    crt0.o                    apple2/crt0.s:11
_fputc (fputc.o):
    putchar.o                 common/putchar.s:10
_fwrite (fwrite.o):
    vfprintf.o                common/vfprintf.s:10
_ip65_error (ip65_c.o):
_ip65_init (ip65_c.o):
    rest_hello.o              rest_hello.s:17
_ip65_process (ip65_c.o):
    rest_hello.o              rest_hello.s:18
_ip65_random_word (ip65_c.o):
_ip65_strerror (ip65_c.o):
_lan91c96 (lancegs.o):
    a2combo.o                 ethernetcombo.s:22
_lan91c96_name (lancegs.o):
    a2combo.o                 ethernetcombo.s:23
_ltoa (ltoa.o):
    _printf.o                 common/_printf.s:12
_main (rest_hello.o):
    callmain.o                apple2/callmain.s:11
_make_request (rest_hello.o):
_on_tcp_receive (rest_hello.o):
_printf (printf.o):
    rest_hello.o              rest_hello.s:14
_putchar (putchar.o):
    rest_hello.o              rest_hello.s:15
_stderr (_file.o):
_stdin (_file.o):
_stdout (_file.o):
    putchar.o                 common/putchar.s:9
    printf.o                  common/printf.s:8
_strlen (strlen.o):
    _printf.o                 common/_printf.s:13
    rest_hello.o              rest_hello.s:16
_strlen_ptr4 (strlen.o):
_strlower (strlower.o):
    _printf.o                 common/_printf.s:13
_strlwr (strlower.o):
_tcp_close (tcp_c.o):
_tcp_connect (tcp_c.o):
    rest_hello.o              rest_hello.s:19
_tcp_listen (tcp_c.o):
_tcp_send (tcp_c.o):
    rest_hello.o              rest_hello.s:20
_tcp_send_keep_alive (tcp_c.o):
_ultoa (ltoa.o):
    _printf.o                 common/_printf.s:12
_vfprintf (vfprintf.o):
    printf.o                  common/printf.s:8
_w5100 (uthernet2.o):
    a2combo.o                 ethernetcombo.s:16
_w5100_name (uthernet2.o):
    a2combo.o                 ethernetcombo.s:17
_write (write.o):
    fwrite.o                  common/fwrite.s:10
    fputc.o                   common/fputc.s:9
abort_key (a2_input.o):
abort_key_default (a2_input.o):
abort_key_disable (a2_input.o):
ac_size (arp.o):
acc16 (arithmetic.o):
    tcp.o                     tcp.s:46
acc32 (arithmetic.o):
    tcp.o                     tcp.s:44
add_16_32 (arithmetic.o):
    tcp.o                     tcp.s:49
add_32_32 (arithmetic.o):
addeq0sp (addeqsp.o):
addeqysp (addeqsp.o):
    rest_hello.o              rest_hello.s:297
addysp (addysp.o):
    incsp4.o                  runtime/incsp4.s:8
    fwrite.o                  common/fwrite.s:11
    printf.o                  common/printf.s:8
    incsp8.o                  runtime/incsp8.s:8
    incsp6.o                  runtime/incsp6.s:8
addysp1 (addysp.o):
arp_add (arp.o):
arp_cache (arp.o):
arp_calculate_gateway_mask (arp.o):
arp_init (arp.o):
    ip65.o                    ip65.s:17
arp_ip (arp.o):
    ip.o                      ip.s:47
arp_lookup (arp.o):
    ip.o                      ip.s:45
arp_mac (arp.o):
    ip.o                      ip.s:46
arp_process (arp.o):
    ip65.o                    ip65.s:26
axlong (axlong.o):
    _printf.o                 common/_printf.s:11
axulong (axlong.o):
    _printf.o                 common/_printf.s:11
    rest_hello.o              rest_hello.s:297
bnega (bneg.o):
    rest_hello.o              rest_hello.s:297
bnegax (bneg.o):
booleq (makebool.o):
    rest_hello.o              rest_hello.s:297
    rest_hello.o              rest_hello.s:297
boolge (makebool.o):
boolgt (makebool.o):
boolle (makebool.o):
boollt (makebool.o):
    lt.o                      runtime/lt.s:8
boolne (makebool.o):
    rest_hello.o              rest_hello.s:297
booluge (makebool.o):
boolugt (makebool.o):
boolule (makebool.o):
boolult (makebool.o):
callmain (callmain.o):
    crt0.o                    apple2/crt0.s:12
callmli (mli.o):
    rwcommon.o                apple2/mli.inc:131
    write.o                   apple2/mli.inc:131
cfg_dns (config.o):
cfg_gateway (config.o):
    arp.o                     arp.s:29
cfg_ip (config.o):
    tcp.o                     tcp.s:68
    udp.o                     udp.s:50
    arp.o                     arp.s:27
    ip.o                      ip.s:29
cfg_mac (config.o):
    a2combo.o                 ethernetcombo.s:25
    eth.o                     eth.s:21
    arp.o                     arp.s:26
    ip.o                      ip.s:28
cfg_netmask (config.o):
    arp.o                     arp.s:28
cfg_tftp_server (config.o):
check_for_abort_key (a2_input.o):
    tcp.o                     tcp.s:40
checkferror (checkferror.o):
    fputc.o                   common/fputc.s:9
cmp_16_16 (arithmetic.o):
    tcp.o                     tcp.s:51
cmp_32_32 (arithmetic.o):
    tcp.o                     tcp.s:50
condes (condes.o):
copy_dest (copymem.o):
    tcp.o                     tcp.s:66
    udp.o                     udp.s:48
copy_src (copymem.o):
    tcp.o                     tcp.s:65
    udp.o                     udp.s:47
copymem (copymem.o):
    tcp.o                     tcp.s:64
    udp.o                     udp.s:46
ctypemask (ctypemask.o):
ctypemaskdirect (ctypemask.o):
    strlower.o                common/strlower.s:14
decax1 (decax1.o):
    rest_hello.o              rest_hello.s:297
decax2 (decax2.o):
    rest_hello.o              rest_hello.s:297
decax3 (decax3.o):
    rest_hello.o              rest_hello.s:297
decsp2 (decsp2.o):
    rest_hello.o              rest_hello.s:297
decsp4 (decsp4.o):
    lpush.o                   runtime/lpush.s:12
    rest_hello.o              rest_hello.s:297
decsp6 (decsp6.o):
    _printf.o                 common/_printf.s:11
dhcp_server (config.o):
done (crt0.o):
    callmain.o                apple2/callmain.s:11
donelib (condes.o):
    callmain.o                apple2/callmain.s:11
eth_data (eth.o):
    ip.o                      ip.s:41
eth_dest (eth.o):
    ip.o                      ip.s:38
eth_init (a2combo.o):
    ip65.o                    ip65.s:15
eth_inp (eth_buffer.o):
    a2combo.o                 ethernetcombo.s:11
    arp.o                     arp.s:16
    icmp.o                    icmp.s:46
    ip.o                      ip.s:33
    ip65.o                    ip65.s:21
eth_inp_len (eth.o):
    a2combo.o                 ethernetcombo.s:12
    icmp.o                    icmp.s:47
    ip.o                      ip.s:34
eth_name (a2combo.o):
eth_outp (eth_buffer.o):
    a2combo.o                 ethernetcombo.s:13
    eth.o                     eth.s:16
    arp.o                     arp.s:18
    icmp.o                    icmp.s:48
    ip.o                      ip.s:35
    ip65.o                    ip65.s:22
eth_outp_len (eth.o):
    a2combo.o                 ethernetcombo.s:14
    arp.o                     arp.s:19
    icmp.o                    icmp.s:49
    ip.o                      ip.s:36
eth_proto_arp (eth.o):
    arp.o                     arp.s:24
    ip65.o                    ip65.s:28
eth_proto_ip (eth.o):
    ip.o                      ip.s:42
eth_rx (a2combo.o):
    ip65.o                    ip65.s:23
eth_set_broadcast_dest (eth.o):
    arp.o                     arp.s:21
eth_set_my_mac_src (eth.o):
    arp.o                     arp.s:22
eth_set_proto (eth.o):
    arp.o                     arp.s:23
    ip.o                      ip.s:32
eth_src (eth.o):
    ip.o                      ip.s:39
eth_tx (a2combo.o):
    arp.o                     arp.s:20
    icmp.o                    icmp.s:45
    ip.o                      ip.s:31
eth_type (eth.o):
fdtab (filedes.o):
    write.o                   apple2/filedes.inc:13
getfd (filedes.o):
    rwcommon.o                apple2/filedes.inc:14
icmp_add_listener (icmp.o):
icmp_callback (icmp.o):
icmp_cksum (icmp.o):
icmp_code (icmp.o):
icmp_data (icmp.o):
icmp_init (icmp.o):
    ip.o                      ip.s:49
icmp_inp (icmp.o):
icmp_outp (icmp.o):
icmp_process (icmp.o):
    ip.o                      ip.s:50
icmp_remove_listener (icmp.o):
icmp_type (icmp.o):
incsp2 (incsp2.o):
    fputc.o                   common/fputc.s:10
    popptr1.o                 runtime/popptr1.s:8
    rest_hello.o              rest_hello.s:297
incsp4 (incsp4.o):
    lpop.o                    runtime/lpop.s:9
incsp6 (incsp6.o):
    fwrite.o                  common/fwrite.s:11
    vfprintf.o                common/vfprintf.s:9
    rest_hello.o              rest_hello.s:297
incsp8 (incsp8.o):
    rest_hello.o              rest_hello.s:297
initdostype (dosdetect.o):
initlib (condes.o):
    crt0.o                    apple2/crt0.s:11
ip65_ctr (ip65.o):
ip65_ctr_arp (ip65.o):
ip65_ctr_ip (ip65.o):
ip65_error (ip65.o):
    tcp.o                     tcp.s:14
    udp.o                     udp.s:6
    ip65_c.o                  ip65_c.s:12
ip65_init (ip65.o):
    ip65_c.o                  ip65_c.s:9
ip65_process (ip65.o):
    tcp.o                     tcp.s:38
    ip65_c.o                  ip65_c.s:10
ip65_random_word (ip65.o):
    tcp.o                     tcp.s:42
    ip65_c.o                  ip65_c.s:11
ip65_strerror (error.o):
    ip65_c.o                  ip65_c.s:13
ip_broadcast (ip.o):
    icmp.o                    icmp.s:32
ip_calc_cksum (ip.o):
    tcp.o                     tcp.s:33
    udp.o                     udp.s:31
    icmp.o                    icmp.s:29
ip_cksum_ptr (ip.o):
    tcp.o                     tcp.s:54
    udp.o                     udp.s:36
    icmp.o                    icmp.s:38
ip_create_packet (ip.o):
    tcp.o                     tcp.s:35
    udp.o                     udp.s:33
ip_data (ip.o):
    tcp.o                     tcp.s:58
    udp.o                     udp.s:40
    icmp.o                    icmp.s:42
ip_dest (ip.o):
    tcp.o                     tcp.s:57
    udp.o                     udp.s:39
    icmp.o                    icmp.s:41
ip_frag (ip.o):
ip_header_cksum (ip.o):
    icmp.o                    icmp.s:39
ip_id (ip.o):
    tcp.o                     tcp.s:61
    udp.o                     udp.s:43
ip_init (ip.o):
    ip65.o                    ip65.s:18
ip_inp (ip.o):
    tcp.o                     tcp.s:36
    udp.o                     udp.s:34
    icmp.o                    icmp.s:30
ip_len (ip.o):
    tcp.o                     tcp.s:62
    udp.o                     udp.s:44
ip_outp (ip.o):
    tcp.o                     tcp.s:37
    udp.o                     udp.s:35
    icmp.o                    icmp.s:31
ip_process (ip.o):
    ip65.o                    ip65.s:25
ip_proto (ip.o):
    tcp.o                     tcp.s:59
    udp.o                     udp.s:41
ip_proto_icmp (ip.o):
ip_proto_tcp (ip.o):
    tcp.o                     tcp.s:60
ip_proto_udp (ip.o):
    udp.o                     udp.s:42
ip_send (ip.o):
    tcp.o                     tcp.s:34
    udp.o                     udp.s:32
ip_src (ip.o):
    tcp.o                     tcp.s:56
    icmp.o                    icmp.s:40
ip_tos (ip.o):
ip_ttl (ip.o):
ip_ver_ihl (ip.o):
ldauidx (ldaui.o):
    rest_hello.o              rest_hello.s:297
ldax0sp (ldaxsp.o):
ldaxysp (ldaxsp.o):
    fwrite.o                  common/fwrite.s:11
    rest_hello.o              rest_hello.s:297
    rest_hello.o              rest_hello.s:297
leaa0sp (leaaxsp.o):
    rest_hello.o              rest_hello.s:297
leaaxsp (leaaxsp.o):
mliparam (mli.o):
    rwcommon.o                apple2/mli.inc:130
    write.o                   apple2/mli.inc:130
mul8x16 (mul8.o):
    mul.o                     runtime/mul.s:8
mul8x16a (mul8.o):
    mul.o                     runtime/mul.s:8
mul_8_16 (arithmetic.o):
negeax (lneg.o):
    ltoa.o                    common/ltoa.s:9
op32 (arithmetic.o):
    tcp.o                     tcp.s:45
popax (incsp2.o):
    rwcommon.o                apple2/rwcommon.s:6
    ltoa.o                    common/ltoa.s:9
    fputc.o                   common/fputc.s:10
    _printf.o                 common/_printf.s:11
    tcp_c.o                   tcp_c.s:22
popeax (lpop.o):
    tcp_c.o                   tcp_c.s:22
popptr1 (popptr1.o):
    rwcommon.o                apple2/rwcommon.s:6
    udiv.o                    runtime/udiv.s:9
    mul8.o                    runtime/mul8.s:9
    mul.o                     runtime/mul.s:9
    ltoa.o                    common/ltoa.s:9
    fputc.o                   common/fputc.s:11
    tcp_c.o                   tcp_c.s:22
ptr1 (zeropage.o):
    rwcommon.o                /home/runner/work/cc65/cc65/asminc/zeropage.inc:12
    checkferror.o             common/checkferror.s:12
    write.o                   /home/runner/work/cc65/cc65/asminc/zeropage.inc:12
    udiv.o                    runtime/udiv.s:10
    strlower.o                common/strlower.s:13
    pushptr1.o                runtime/pushptr1.s:9
    mul8.o                    runtime/mul8.s:10
    mul.o                     runtime/mul.s:10
    ltoa.o                    common/ltoa.s:11
    fwrite.o                  common/fwrite.s:14
    fputc.o                   common/fputc.s:8
    _printf.o                 /home/runner/work/cc65/cc65/asminc/zeropage.inc:12
    zerobss.o                 common/zerobss.s:9
    vfprintf.o                common/vfprintf.s:11
    printf.o                  common/printf.s:9
    popptr1.o                 runtime/popptr1.s:9
    ldaui.o                   runtime/ldaui.s:8
    uthernet2.o               C:\UTILITY\cc65\asminc/zeropage.inc:12
    lancegs.o                 C:\UTILITY\cc65\asminc/zeropage.inc:12
    uthernet.o                C:\UTILITY\cc65\asminc/zeropage.inc:12
    a2combo.o                 C:\UTILITY\cc65\asminc/zeropage.inc:12
    arithmetic.o              C:\UTILITY\cc65\asminc/zeropage.inc:12
    tcp.o                     C:\UTILITY\cc65\asminc/zeropage.inc:12
    copymem.o                 C:\UTILITY\cc65\asminc/zeropage.inc:12
    arp.o                     C:\UTILITY\cc65\asminc/zeropage.inc:12
    ip.o                      C:\UTILITY\cc65\asminc/zeropage.inc:12
    tcp_c.o                   tcp_c.s:23
ptr2 (zeropage.o):
    rwcommon.o                /home/runner/work/cc65/cc65/asminc/zeropage.inc:12
    write.o                   /home/runner/work/cc65/cc65/asminc/zeropage.inc:12
    strlower.o                common/strlower.s:13
    ltoa.o                    common/ltoa.s:11
    _printf.o                 /home/runner/work/cc65/cc65/asminc/zeropage.inc:12
    uthernet2.o               C:\UTILITY\cc65\asminc/zeropage.inc:12
    lancegs.o                 C:\UTILITY\cc65\asminc/zeropage.inc:12
    uthernet.o                C:\UTILITY\cc65\asminc/zeropage.inc:12
    arithmetic.o              C:\UTILITY\cc65\asminc/zeropage.inc:12
    copymem.o                 C:\UTILITY\cc65\asminc/zeropage.inc:12
    ip.o                      C:\UTILITY\cc65\asminc/zeropage.inc:12
ptr3 (zeropage.o):
    ltoa.o                    common/ltoa.s:11
    uthernet2.o               C:\UTILITY\cc65\asminc/zeropage.inc:12
    lancegs.o                 C:\UTILITY\cc65\asminc/zeropage.inc:12
    uthernet.o                C:\UTILITY\cc65\asminc/zeropage.inc:12
ptr4 (zeropage.o):
    udiv.o                    runtime/udiv.s:10
    mul8.o                    runtime/mul8.s:10
    mul.o                     runtime/mul.s:10
    strlen.o                  common/strlen.s:12
    uthernet2.o               C:\UTILITY\cc65\asminc/zeropage.inc:12
    uthernet.o                C:\UTILITY\cc65\asminc/zeropage.inc:12
push0 (pushax.o):
push0ax (lpush.o):
push1 (push1.o):
    _printf.o                 common/_printf.s:11
    vfprintf.o                common/vfprintf.s:9
pusha0 (pushax.o):
    push1.o                   runtime/push1.s:8
    fwrite.o                  common/fwrite.s:11
    fputc.o                   common/fputc.s:10
pushax (pushax.o):
    pushptr1.o                runtime/pushptr1.s:8
    fwrite.o                  common/fwrite.s:11
    fputc.o                   common/fputc.s:10
    callmain.o                apple2/callmain.s:11
    _printf.o                 common/_printf.s:11
    putchar.o                 common/putchar.s:8
    printf.o                  common/printf.s:8
    tcp_c.o                   tcp_c.s:22
    rest_hello.o              rest_hello.s:297
    rest_hello.o              rest_hello.s:297
pusheax (lpush.o):
    _printf.o                 common/_printf.s:11
    rest_hello.o              rest_hello.s:297
pushl0 (lpush.o):
pushptr1 (pushptr1.o):
    fputc.o                   common/fputc.s:11
pushw0sp (pushwsp.o):
pushwysp (pushwsp.o):
    fwrite.o                  common/fwrite.s:11
    vfprintf.o                common/vfprintf.s:9
regbank (zeropage.o):
    _printf.o                 /home/runner/work/cc65/cc65/asminc/zeropage.inc:14
regsave (zeropage.o):
reset (crt0.o):
    callmain.o                apple2/callmain.s:12
return (crt0.o):
returnFFFF (returnFFFF.o):
    fputc.o                   common/fputc.s:11
rvsave (crt0.o):
    callmain.o                apple2/callmain.s:12
rwcommon (rwcommon.o):
    write.o                   apple2/write.s:8
rwepilog (rwcommon.o):
    write.o                   apple2/write.s:8
rwprolog (rwcommon.o):
    write.o                   apple2/write.s:8
sp (zeropage.o):
    pushwsp.o                 runtime/pushwsp.s:8
    icmp.o                    runtime/icmp.s:9
    decsp6.o                  runtime/decsp6.s:8
    callmain.o                /home/runner/work/cc65/cc65/asminc/zeropage.inc:11
    addysp.o                  runtime/addysp.s:8
    _printf.o                 /home/runner/work/cc65/cc65/asminc/zeropage.inc:11
    vfprintf.o                common/vfprintf.s:11
    subeqsp.o                 runtime/subeqsp.s:8
    staxsp.o                  runtime/staxsp.s:8
    pushax.o                  runtime/pushax.s:8
    printf.o                  common/printf.s:9
    popptr1.o                 runtime/popptr1.s:9
    lpush.o                   runtime/lpush.s:13
    lpop.o                    runtime/lpop.s:10
    leaaxsp.o                 runtime/leaaxsp.s:8
    ldaxsp.o                  runtime/ldaxsp.s:8
    incsp2.o                  runtime/incsp2.s:8
    decsp4.o                  runtime/decsp4.s:8
    decsp2.o                  runtime/decsp2.s:8
    crt0.o                    /home/runner/work/cc65/cc65/asminc/zeropage.inc:11
    addeqsp.o                 runtime/addeqsp.s:8
    add.o                     runtime/add.s:12
    rest_hello.o              rest_hello.s:10
sreg (zeropage.o):
    lneg.o                    runtime/lneg.s:11
    udiv.o                    runtime/udiv.s:10
    ltoa.o                    common/ltoa.s:11
    icmp.o                    runtime/icmp.s:9
    _printf.o                 /home/runner/work/cc65/cc65/asminc/zeropage.inc:11
    lpush.o                   runtime/lpush.s:13
    lpop.o                    runtime/lpop.s:10
    axlong.o                  runtime/axlong.s:9
    uthernet2.o               C:\UTILITY\cc65\asminc/zeropage.inc:11
    tcp_c.o                   tcp_c.s:23
stax0sp (staxsp.o):
staxysp (staxsp.o):
    rest_hello.o              rest_hello.s:297
sub_16_16 (arithmetic.o):
    tcp.o                     tcp.s:52
subeq0sp (subeqsp.o):
subeqysp (subeqsp.o):
    rest_hello.o              rest_hello.s:297
tcp_callback (tcp.o):
    tcp_c.o                   tcp_c.s:17
tcp_close (tcp.o):
    tcp_c.o                   tcp_c.s:11
tcp_connect (tcp.o):
    tcp_c.o                   tcp_c.s:10
tcp_connect_ip (tcp.o):
    tcp_c.o                   tcp_c.s:19
tcp_connect_remote_port (tcp.o):
tcp_inbound_data_length (tcp.o):
    tcp_c.o                   tcp_c.s:13
tcp_inbound_data_ptr (tcp.o):
    tcp_c.o                   tcp_c.s:12
tcp_init (tcp.o):
tcp_listen (tcp.o):
    tcp_c.o                   tcp_c.s:9
tcp_process (tcp.o):
tcp_remote_ip (tcp.o):
    tcp_c.o                   tcp_c.s:18
tcp_send (tcp.o):
    tcp_c.o                   tcp_c.s:14
tcp_send_data_len (tcp.o):
    tcp_c.o                   tcp_c.s:20
tcp_send_keep_alive (tcp.o):
    tcp_c.o                   tcp_c.s:15
tcp_send_string (tcp.o):
tcp_state (tcp.o):
timer_init (a2_timer.o):
    ip65.o                    ip65.s:16
timer_read (a2_timer.o):
    tcp.o                     tcp.s:41
    timer.o                   timer.s:13
    arp.o                     arp.s:31
    ip65.o                    ip65.s:19
timer_seconds (a2_timer.o):
timer_timeout (timer.o):
    arp.o                     arp.s:32
tmp1 (zeropage.o):
    mul.o                     runtime/mul.s:10
    ltoa.o                    common/ltoa.s:11
    _printf.o                 /home/runner/work/cc65/cc65/asminc/zeropage.inc:13
    add.o                     runtime/add.s:12
    uthernet2.o               C:\UTILITY\cc65\asminc/zeropage.inc:13
tmp2 (zeropage.o):
    uthernet2.o               C:\UTILITY\cc65\asminc/zeropage.inc:13
tmp3 (zeropage.o):
    uthernet2.o               C:\UTILITY\cc65\asminc/zeropage.inc:13
tmp4 (zeropage.o):
    uthernet2.o               C:\UTILITY\cc65\asminc/zeropage.inc:13
tosadda0 (add.o):
tosaddax (add.o):
    rest_hello.o              rest_hello.s:297
tosicmp (icmp.o):
    lt.o                      runtime/lt.s:8
tosicmp0 (icmp.o):
toslt00 (lt.o):
toslta0 (lt.o):
tosltax (lt.o):
    rest_hello.o              rest_hello.s:297
tosmula0 (mul8.o):
tosmulax (mul.o):
tosudiva0 (udiv.o):
tosudivax (udiv.o):
    fwrite.o                  common/fwrite.s:12
tosumula0 (mul8.o):
tosumulax (mul.o):
    fwrite.o                  common/fwrite.s:12
udiv16 (udiv.o):
udp_add_listener (udp.o):
udp_callback (udp.o):
udp_cksum (udp.o):
udp_data (udp.o):
udp_dest_port (udp.o):
udp_init (udp.o):
    ip.o                      ip.s:52
udp_inp (udp.o):
udp_len (udp.o):
udp_outp (udp.o):
udp_process (udp.o):
    ip.o                      ip.s:53
udp_remove_listener (udp.o):
udp_send (udp.o):
udp_send_dest (udp.o):
udp_send_dest_port (udp.o):
udp_send_internal (udp.o):
udp_send_len (udp.o):
udp_send_src_port (udp.o):
udp_src_port (udp.o):
uppercasemask (uppercasemask.o):
    write.o                   apple2/write.s:11
zerobss (zerobss.o):
    crt0.o                    apple2/crt0.s:12
zpsave (crt0.o):
    callmain.o                apple2/callmain.s:12

